---
triple:          'arm64-apple-darwin'
binary-path:     '/Users/yj/Developer/cpp_snake/main'
relocations:
  - { offsetInCU: 0x3F, offset: 0x3F, size: 0x8, addend: 0x0, symName: _pink, symObjAddr: 0x8820, symBinAddr: 0x100010000, symSize: 0x0 }
  - { offsetInCU: 0xA0, offset: 0xA0, size: 0x8, addend: 0x0, symName: _darkPink, symObjAddr: 0x8824, symBinAddr: 0x100010004, symSize: 0x0 }
  - { offsetInCU: 0xB5, offset: 0xB5, size: 0x8, addend: 0x0, symName: _lastUpdateTime, symObjAddr: 0x3FD50, symBinAddr: 0x100010008, symSize: 0x0 }
  - { offsetInCU: 0x5A4E, offset: 0x5A4E, size: 0x8, addend: 0x0, symName: __ZNSt3__124__put_character_sequenceB7v160006IcNS_11char_traitsIcEEEERNS_13basic_ostreamIT_T0_EES7_PKS4_m, symObjAddr: 0x79F4, symBinAddr: 0x10000A8DC, symSize: 0x1EC }
  - { offsetInCU: 0x739E, offset: 0x739E, size: 0x8, addend: 0x0, symName: __ZNSt3__1neB7v160006ERKNS_16__deque_iteratorI7Vector2PS1_RS1_PS2_lLl512EEES7_, symObjAddr: 0x24C, symBinAddr: 0x100003134, symSize: 0x34 }
  - { offsetInCU: 0x73DB, offset: 0x73DB, size: 0x8, addend: 0x0, symName: __ZNSt3__1lsB7v160006INS_11char_traitsIcEEEERNS_13basic_ostreamIcT_EES6_PKc, symObjAddr: 0x6DC, symBinAddr: 0x1000035C4, symSize: 0x48 }
  - { offsetInCU: 0x7421, offset: 0x7421, size: 0x8, addend: 0x0, symName: __ZNSt3__14endlB7v160006IcNS_11char_traitsIcEEEERNS_13basic_ostreamIT_T0_EES7_, symObjAddr: 0x750, symBinAddr: 0x100003638, symSize: 0x58 }
  - { offsetInCU: 0x747D, offset: 0x747D, size: 0x8, addend: 0x0, symName: __ZNSt3__18distanceB7v160006IPK7Vector2EENS_15iterator_traitsIT_E15difference_typeES5_S5_, symObjAddr: 0x10C0, symBinAddr: 0x100003FA8, symSize: 0x2C }
  - { offsetInCU: 0x74C0, offset: 0x74C0, size: 0x8, addend: 0x0, symName: __ZNSt3__1neB7v160006ERKNS_5dequeI7Vector2NS_9allocatorIS1_EEE13__deque_rangeES7_, symObjAddr: 0x1828, symBinAddr: 0x100004710, symSize: 0x34 }
  - { offsetInCU: 0x74FD, offset: 0x74FD, size: 0x8, addend: 0x0, symName: __ZNSt3__112__to_addressB7v160006I7Vector2EEPT_S3_, symObjAddr: 0x1948, symBinAddr: 0x100004830, symSize: 0x14 }
  - { offsetInCU: 0x7532, offset: 0x7532, size: 0x8, addend: 0x0, symName: __ZNSt3__110__distanceB7v160006IPK7Vector2EENS_15iterator_traitsIT_E15difference_typeES5_S5_NS_26random_access_iterator_tagE, symObjAddr: 0x19EC, symBinAddr: 0x1000048D4, symSize: 0x28 }
  - { offsetInCU: 0x757F, offset: 0x757F, size: 0x8, addend: 0x0, symName: __ZNSt3__13minB7v160006ImEERKT_S3_S3_, symObjAddr: 0x1BDC, symBinAddr: 0x100004AC4, symSize: 0x2C }
  - { offsetInCU: 0x75C2, offset: 0x75C2, size: 0x8, addend: 0x0, symName: __ZNSt3__13maxB7v160006ImEERKT_S3_S3_, symObjAddr: 0x2414, symBinAddr: 0x1000052FC, symSize: 0x2C }
  - { offsetInCU: 0x7605, offset: 0x7605, size: 0x8, addend: 0x0, symName: __ZNSt3__14swapB7v160006IPP7Vector2EENS_9enable_ifIXaasr21is_move_constructibleIT_EE5valuesr18is_move_assignableIS5_EE5valueEvE4typeERS5_S8_, symObjAddr: 0x2C5C, symBinAddr: 0x100005B44, symSize: 0x3C }
  - { offsetInCU: 0x7656, offset: 0x7656, size: 0x8, addend: 0x0, symName: __ZNSt3__13minB7v160006ImNS_6__lessImmEEEERKT_S5_S5_T0_, symObjAddr: 0x2D14, symBinAddr: 0x100005BFC, symSize: 0x54 }
  - { offsetInCU: 0x76EB, offset: 0x76EB, size: 0x8, addend: 0x0, symName: __ZNSt3__14moveB7v160006IPP7Vector2S3_EET0_T_S5_S4_, symObjAddr: 0x2DE8, symBinAddr: 0x100005CD0, symSize: 0x40 }
  - { offsetInCU: 0x7745, offset: 0x7745, size: 0x8, addend: 0x0, symName: __ZNSt3__112__to_addressB7v160006IP7Vector2EEPT_S4_, symObjAddr: 0x2F8C, symBinAddr: 0x100005E74, symSize: 0x14 }
  - { offsetInCU: 0x777A, offset: 0x777A, size: 0x8, addend: 0x0, symName: __ZNSt3__16__moveB7v160006INS_17_ClassicAlgPolicyEPP7Vector2S4_S4_EENS_4pairIT0_T2_EES6_T1_S7_, symObjAddr: 0x2FA0, symBinAddr: 0x100005E88, symSize: 0x44 }
  - { offsetInCU: 0x77E6, offset: 0x77E6, size: 0x8, addend: 0x0, symName: __ZNSt3__123__dispatch_copy_or_moveB7v160006INS_17_ClassicAlgPolicyENS_11__move_loopIS1_EENS_14__move_trivialEPP7Vector2S7_S7_EENS_4pairIT2_T4_EES9_T3_SA_, symObjAddr: 0x2FE4, symBinAddr: 0x100005ECC, symSize: 0x44 }
  - { offsetInCU: 0x7864, offset: 0x7864, size: 0x8, addend: 0x0, symName: __ZNSt3__121__unwrap_and_dispatchB7v160006INS_10__overloadINS_11__move_loopINS_17_ClassicAlgPolicyEEENS_14__move_trivialEEEPP7Vector2S9_S9_Li0EEENS_4pairIT0_T2_EESB_T1_SC_, symObjAddr: 0x3028, symBinAddr: 0x100005F10, symSize: 0xB4 }
  - { offsetInCU: 0x78F2, offset: 0x78F2, size: 0x8, addend: 0x0, symName: __ZNSt3__114__unwrap_rangeB7v160006IPP7Vector2S3_EENS_4pairIT0_S5_EET_S7_, symObjAddr: 0x30DC, symBinAddr: 0x100005FC4, symSize: 0x60 }
  - { offsetInCU: 0x7AB6, offset: 0x7AB6, size: 0x8, addend: 0x0, symName: __ZNSt3__113__unwrap_iterB7v160006IPP7Vector2NS_18__unwrap_iter_implIS3_Lb1EEELi0EEEDTclsrT0_8__unwrapclsr3stdE7declvalIT_EEEES7_, symObjAddr: 0x3184, symBinAddr: 0x10000606C, symSize: 0x24 }
  - { offsetInCU: 0x7AFA, offset: 0x7AFA, size: 0x8, addend: 0x0, symName: __ZNSt3__19make_pairB7v160006IPP7Vector2S3_EENS_4pairINS_18__unwrap_ref_decayIT_E4typeENS5_IT0_E4typeEEEOS6_OS9_, symObjAddr: 0x31A8, symBinAddr: 0x100006090, symSize: 0x38 }
  - { offsetInCU: 0x7B49, offset: 0x7B49, size: 0x8, addend: 0x0, symName: __ZNSt3__114__rewrap_rangeB7v160006IPP7Vector2S3_EET_S4_T0_, symObjAddr: 0x31E0, symBinAddr: 0x1000060C8, symSize: 0x2C }
  - { offsetInCU: 0x7B95, offset: 0x7B95, size: 0x8, addend: 0x0, symName: __ZNSt3__113__rewrap_iterB7v160006IPP7Vector2S3_NS_18__unwrap_iter_implIS3_Lb1EEEEET_S6_T0_, symObjAddr: 0x320C, symBinAddr: 0x1000060F4, symSize: 0x3C }
  - { offsetInCU: 0x7BEA, offset: 0x7BEA, size: 0x8, addend: 0x0, symName: __ZNSt3__119__copy_trivial_implB7v160006IP7Vector2S2_EENS_4pairIPT_PT0_EES5_S5_S7_, symObjAddr: 0x3248, symBinAddr: 0x100006130, symSize: 0x84 }
  - { offsetInCU: 0x7C52, offset: 0x7C52, size: 0x8, addend: 0x0, symName: __ZNSt3__19make_pairB7v160006IRPP7Vector2S3_EENS_4pairINS_18__unwrap_ref_decayIT_E4typeENS6_IT0_E4typeEEEOS7_OSA_, symObjAddr: 0x32CC, symBinAddr: 0x1000061B4, symSize: 0x38 }
  - { offsetInCU: 0x7CF4, offset: 0x7CF4, size: 0x8, addend: 0x0, symName: __ZNSt3__18distanceB7v160006INS_13move_iteratorIPP7Vector2EEEENS_15iterator_traitsIT_E15difference_typeES7_S7_, symObjAddr: 0x3458, symBinAddr: 0x100006340, symSize: 0x3C }
  - { offsetInCU: 0x7D37, offset: 0x7D37, size: 0x8, addend: 0x0, symName: __ZNSt3__110__distanceB7v160006INS_13move_iteratorIPP7Vector2EEEENS_15iterator_traitsIT_E15difference_typeES7_S7_NS_26random_access_iterator_tagE, symObjAddr: 0x3590, symBinAddr: 0x100006478, symSize: 0x30 }
  - { offsetInCU: 0x7D84, offset: 0x7D84, size: 0x8, addend: 0x0, symName: __ZNSt3__1miB7v160006IPP7Vector2S3_EEDTmicldtfp_4baseEcldtfp0_4baseEERKNS_13move_iteratorIT_EERKNS5_IT0_EE, symObjAddr: 0x35C0, symBinAddr: 0x1000064A8, symSize: 0x48 }
  - { offsetInCU: 0x7DD3, offset: 0x7DD3, size: 0x8, addend: 0x0, symName: __ZNSt3__117__libcpp_allocateB7v160006Emm, symObjAddr: 0x3844, symBinAddr: 0x10000672C, symSize: 0x28 }
  - { offsetInCU: 0x7E10, offset: 0x7E10, size: 0x8, addend: 0x0, symName: __ZNSt3__121__libcpp_operator_newB7v160006IJmEEEPvDpT_, symObjAddr: 0x3880, symBinAddr: 0x100006768, symSize: 0x24 }
  - { offsetInCU: 0x7E49, offset: 0x7E49, size: 0x8, addend: 0x0, symName: __ZNSt3__113move_backwardB7v160006IPP7Vector2S3_EET0_T_S5_S4_, symObjAddr: 0x38A4, symBinAddr: 0x10000678C, symSize: 0x40 }
  - { offsetInCU: 0x7EA3, offset: 0x7EA3, size: 0x8, addend: 0x0, symName: __ZNSt3__115__move_backwardB7v160006INS_17_ClassicAlgPolicyEPP7Vector2S4_S4_EENS_4pairIT0_T2_EES6_T1_S7_, symObjAddr: 0x38E4, symBinAddr: 0x1000067CC, symSize: 0x44 }
  - { offsetInCU: 0x7F0F, offset: 0x7F0F, size: 0x8, addend: 0x0, symName: __ZNSt3__123__dispatch_copy_or_moveB7v160006INS_17_ClassicAlgPolicyENS_20__move_backward_loopIS1_EENS_23__move_backward_trivialEPP7Vector2S7_S7_EENS_4pairIT2_T4_EES9_T3_SA_, symObjAddr: 0x3928, symBinAddr: 0x100006810, symSize: 0x44 }
  - { offsetInCU: 0x7F8D, offset: 0x7F8D, size: 0x8, addend: 0x0, symName: __ZNSt3__121__unwrap_and_dispatchB7v160006INS_10__overloadINS_20__move_backward_loopINS_17_ClassicAlgPolicyEEENS_23__move_backward_trivialEEEPP7Vector2S9_S9_Li0EEENS_4pairIT0_T2_EESB_T1_SC_, symObjAddr: 0x396C, symBinAddr: 0x100006854, symSize: 0xB4 }
  - { offsetInCU: 0x8061, offset: 0x8061, size: 0x8, addend: 0x0, symName: __ZNSt3__128__copy_backward_trivial_implB7v160006IP7Vector2S2_EENS_4pairIPT_PT0_EES5_S5_S7_, symObjAddr: 0x3A68, symBinAddr: 0x100006950, symSize: 0x94 }
  - { offsetInCU: 0x80C9, offset: 0x80C9, size: 0x8, addend: 0x0, symName: __ZNSt3__19make_pairB7v160006IRPP7Vector2S4_EENS_4pairINS_18__unwrap_ref_decayIT_E4typeENS6_IT0_E4typeEEEOS7_OSA_, symObjAddr: 0x3AFC, symBinAddr: 0x1000069E4, symSize: 0x38 }
  - { offsetInCU: 0x8118, offset: 0x8118, size: 0x8, addend: 0x0, symName: __ZNSt3__13maxB7v160006ImNS_6__lessImmEEEERKT_S5_S5_T0_, symObjAddr: 0x3BA4, symBinAddr: 0x100006A8C, symSize: 0x54 }
  - { offsetInCU: 0x8172, offset: 0x8172, size: 0x8, addend: 0x0, symName: __ZNSt3__119__allocate_at_leastB7v160006INS_9allocatorIP7Vector2EEEENS_19__allocation_resultINS_16allocator_traitsIT_E7pointerEEERS7_m, symObjAddr: 0x3D40, symBinAddr: 0x100006C28, symSize: 0x40 }
  - { offsetInCU: 0x81B5, offset: 0x81B5, size: 0x8, addend: 0x0, symName: __ZNSt3__119__libcpp_deallocateB7v160006EPvmm, symObjAddr: 0x3EB8, symBinAddr: 0x100006DA0, symSize: 0x30 }
  - { offsetInCU: 0x81FD, offset: 0x81FD, size: 0x8, addend: 0x0, symName: __ZNSt3__127__do_deallocate_handle_sizeB7v160006IJEEEvPvmDpT_, symObjAddr: 0x3EE8, symBinAddr: 0x100006DD0, symSize: 0x28 }
  - { offsetInCU: 0x823B, offset: 0x823B, size: 0x8, addend: 0x0, symName: __ZNSt3__124__libcpp_operator_deleteB7v160006IJPvEEEvDpT_, symObjAddr: 0x3F10, symBinAddr: 0x100006DF8, symSize: 0x24 }
  - { offsetInCU: 0x8270, offset: 0x8270, size: 0x8, addend: 0x0, symName: __ZNSt3__1eqB7v160006ERKNS_5dequeI7Vector2NS_9allocatorIS1_EEE13__deque_rangeES7_, symObjAddr: 0x4374, symBinAddr: 0x10000725C, symSize: 0x30 }
  - { offsetInCU: 0x82AD, offset: 0x82AD, size: 0x8, addend: 0x0, symName: __ZNSt3__1eqB7v160006ERKNS_16__deque_iteratorI7Vector2PS1_RS1_PS2_lLl512EEES7_, symObjAddr: 0x43A4, symBinAddr: 0x10000728C, symSize: 0x30 }
  - { offsetInCU: 0x82EA, offset: 0x82EA, size: 0x8, addend: 0x0, symName: __ZNSt3__18distanceB7v160006INS_16__deque_iteratorI7Vector2PKS2_RS3_PKS4_lLl512EEEEENS_15iterator_traitsIT_E15difference_typeESA_SA_, symObjAddr: 0x4E24, symBinAddr: 0x100007D0C, symSize: 0x4C }
  - { offsetInCU: 0x832D, offset: 0x832D, size: 0x8, addend: 0x0, symName: __ZNSt3__110__distanceB7v160006INS_16__deque_iteratorI7Vector2PKS2_RS3_PKS4_lLl512EEEEENS_15iterator_traitsIT_E15difference_typeESA_SA_NS_26random_access_iterator_tagE, symObjAddr: 0x4EF8, symBinAddr: 0x100007DE0, symSize: 0x38 }
  - { offsetInCU: 0x837A, offset: 0x837A, size: 0x8, addend: 0x0, symName: __ZNSt3__1miB7v160006ERKNS_16__deque_iteratorI7Vector2PKS1_RS2_PKS3_lLl512EEES9_, symObjAddr: 0x4F30, symBinAddr: 0x100007E18, symSize: 0xA4 }
  - { offsetInCU: 0x83B7, offset: 0x83B7, size: 0x8, addend: 0x0, symName: __ZNSt3__1neB7v160006ERKNS_16__deque_iteratorI7Vector2PKS1_RS2_PKS3_lLl512EEES9_, symObjAddr: 0x4FD4, symBinAddr: 0x100007EBC, symSize: 0x34 }
  - { offsetInCU: 0x83F4, offset: 0x83F4, size: 0x8, addend: 0x0, symName: __ZNSt3__1eqB7v160006ERKNS_16__deque_iteratorI7Vector2PKS1_RS2_PKS3_lLl512EEES9_, symObjAddr: 0x5008, symBinAddr: 0x100007EF0, symSize: 0x30 }
  - { offsetInCU: 0x888A, offset: 0x888A, size: 0x8, addend: 0x0, symName: __ZNSt3__14copyB7v160006IPK7Vector2NS_16__deque_iteratorIS1_PS1_RS1_PS5_lLl512EEEEET0_T_SA_S9_, symObjAddr: 0x68D0, symBinAddr: 0x1000097B8, symSize: 0x60 }
  - { offsetInCU: 0x88E4, offset: 0x88E4, size: 0x8, addend: 0x0, symName: __ZNSt3__16__copyB7v160006INS_17_ClassicAlgPolicyEPK7Vector2S4_NS_16__deque_iteratorIS2_PS2_RS2_PS6_lLl512EEEEENS_4pairIT0_T2_EESB_T1_SC_, symObjAddr: 0x6AD4, symBinAddr: 0x1000099BC, symSize: 0x44 }
  - { offsetInCU: 0x8950, offset: 0x8950, size: 0x8, addend: 0x0, symName: __ZNSt3__123__dispatch_copy_or_moveB7v160006INS_17_ClassicAlgPolicyENS_11__copy_loopIS1_EENS_14__copy_trivialEPK7Vector2S7_NS_16__deque_iteratorIS5_PS5_RS5_PS9_lLl512EEEEENS_4pairIT2_T4_EESE_T3_SF_, symObjAddr: 0x6B18, symBinAddr: 0x100009A00, symSize: 0x44 }
  - { offsetInCU: 0x89CE, offset: 0x89CE, size: 0x8, addend: 0x0, symName: __ZNSt3__121__unwrap_and_dispatchB7v160006INS_10__overloadINS_11__copy_loopINS_17_ClassicAlgPolicyEEENS_14__copy_trivialEEEPK7Vector2S9_NS_16__deque_iteratorIS7_PS7_RS7_PSB_lLl512EEELi0EEENS_4pairIT0_T2_EESG_T1_SH_, symObjAddr: 0x6B5C, symBinAddr: 0x100009A44, symSize: 0xF0 }
  - { offsetInCU: 0x8A5D, offset: 0x8A5D, size: 0x8, addend: 0x0, symName: __ZNSt3__114__unwrap_rangeB7v160006IPK7Vector2S3_EENS_4pairIT0_S5_EET_S7_, symObjAddr: 0x6C4C, symBinAddr: 0x100009B34, symSize: 0x60 }
  - { offsetInCU: 0x8BD5, offset: 0x8BD5, size: 0x8, addend: 0x0, symName: __ZNSt3__113__unwrap_iterB7v160006INS_16__deque_iteratorI7Vector2PS2_RS2_PS3_lLl512EEENS_18__unwrap_iter_implIS6_Lb0EEELi0EEEDTclsrT0_8__unwrapclsr3stdE7declvalIT_EEEESA_, symObjAddr: 0x6E10, symBinAddr: 0x100009CF8, symSize: 0x44 }
  - { offsetInCU: 0x8C19, offset: 0x8C19, size: 0x8, addend: 0x0, symName: __ZNSt3__19make_pairB7v160006IPK7Vector2NS_16__deque_iteratorIS1_PS1_RS1_PS5_lLl512EEEEENS_4pairINS_18__unwrap_ref_decayIT_E4typeENSA_IT0_E4typeEEEOSB_OSE_, symObjAddr: 0x6E54, symBinAddr: 0x100009D3C, symSize: 0x38 }
  - { offsetInCU: 0x8C68, offset: 0x8C68, size: 0x8, addend: 0x0, symName: __ZNSt3__114__rewrap_rangeB7v160006IPK7Vector2S3_EET_S4_T0_, symObjAddr: 0x6E8C, symBinAddr: 0x100009D74, symSize: 0x2C }
  - { offsetInCU: 0x8CB4, offset: 0x8CB4, size: 0x8, addend: 0x0, symName: __ZNSt3__113__rewrap_iterB7v160006INS_16__deque_iteratorI7Vector2PS2_RS2_PS3_lLl512EEES6_NS_18__unwrap_iter_implIS6_Lb0EEEEET_S9_T0_, symObjAddr: 0x6EB8, symBinAddr: 0x100009DA0, symSize: 0x74 }
  - { offsetInCU: 0x8D09, offset: 0x8D09, size: 0x8, addend: 0x0, symName: __ZNSt3__19make_pairB7v160006IPK7Vector2S3_EENS_4pairINS_18__unwrap_ref_decayIT_E4typeENS5_IT0_E4typeEEEOS6_OS9_, symObjAddr: 0x6F2C, symBinAddr: 0x100009E14, symSize: 0x38 }
  - { offsetInCU: 0x8D58, offset: 0x8D58, size: 0x8, addend: 0x0, symName: __ZNSt3__113__unwrap_iterB7v160006IPK7Vector2NS_18__unwrap_iter_implIS3_Lb1EEELi0EEEDTclsrT0_8__unwrapclsr3stdE7declvalIT_EEEES7_, symObjAddr: 0x6F64, symBinAddr: 0x100009E4C, symSize: 0x24 }
  - { offsetInCU: 0x8EC3, offset: 0x8EC3, size: 0x8, addend: 0x0, symName: __ZNSt3__112__to_addressB7v160006IK7Vector2EEPT_S4_, symObjAddr: 0x701C, symBinAddr: 0x100009F04, symSize: 0x14 }
  - { offsetInCU: 0x8FA4, offset: 0x8FA4, size: 0x8, addend: 0x0, symName: __ZNSt3__13minB7v160006IlEERKT_S3_S3_, symObjAddr: 0x707C, symBinAddr: 0x100009F64, symSize: 0x2C }
  - { offsetInCU: 0x8FE7, offset: 0x8FE7, size: 0x8, addend: 0x0, symName: __ZNSt3__16__copyB7v160006INS_17_ClassicAlgPolicyEPK7Vector2S4_PS2_EENS_4pairIT0_T2_EES7_T1_S8_, symObjAddr: 0x70A8, symBinAddr: 0x100009F90, symSize: 0x44 }
  - { offsetInCU: 0x904F, offset: 0x904F, size: 0x8, addend: 0x0, symName: __ZNSt3__13minB7v160006IlNS_6__lessIllEEEERKT_S5_S5_T0_, symObjAddr: 0x7188, symBinAddr: 0x10000A070, symSize: 0x54 }
  - { offsetInCU: 0x90E4, offset: 0x90E4, size: 0x8, addend: 0x0, symName: __ZNSt3__123__dispatch_copy_or_moveB7v160006INS_17_ClassicAlgPolicyENS_11__copy_loopIS1_EENS_14__copy_trivialEPK7Vector2S7_PS5_EENS_4pairIT2_T4_EESA_T3_SB_, symObjAddr: 0x7210, symBinAddr: 0x10000A0F8, symSize: 0x44 }
  - { offsetInCU: 0x9162, offset: 0x9162, size: 0x8, addend: 0x0, symName: __ZNSt3__121__unwrap_and_dispatchB7v160006INS_10__overloadINS_11__copy_loopINS_17_ClassicAlgPolicyEEENS_14__copy_trivialEEEPK7Vector2S9_PS7_Li0EEENS_4pairIT0_T2_EESC_T1_SD_, symObjAddr: 0x7254, symBinAddr: 0x10000A13C, symSize: 0xB4 }
  - { offsetInCU: 0x9339, offset: 0x9339, size: 0x8, addend: 0x0, symName: __ZNSt3__113__unwrap_iterB7v160006IP7Vector2NS_18__unwrap_iter_implIS2_Lb1EEELi0EEEDTclsrT0_8__unwrapclsr3stdE7declvalIT_EEEES6_, symObjAddr: 0x7350, symBinAddr: 0x10000A238, symSize: 0x24 }
  - { offsetInCU: 0x937D, offset: 0x937D, size: 0x8, addend: 0x0, symName: __ZNSt3__19make_pairB7v160006IPK7Vector2PS1_EENS_4pairINS_18__unwrap_ref_decayIT_E4typeENS6_IT0_E4typeEEEOS7_OSA_, symObjAddr: 0x7374, symBinAddr: 0x10000A25C, symSize: 0x38 }
  - { offsetInCU: 0x93CC, offset: 0x93CC, size: 0x8, addend: 0x0, symName: __ZNSt3__113__rewrap_iterB7v160006IP7Vector2S2_NS_18__unwrap_iter_implIS2_Lb1EEEEET_S5_T0_, symObjAddr: 0x73AC, symBinAddr: 0x10000A294, symSize: 0x3C }
  - { offsetInCU: 0x9421, offset: 0x9421, size: 0x8, addend: 0x0, symName: __ZNSt3__119__copy_trivial_implB7v160006IK7Vector2S1_EENS_4pairIPT_PT0_EES5_S5_S7_, symObjAddr: 0x73E8, symBinAddr: 0x10000A2D0, symSize: 0x84 }
  - { offsetInCU: 0x9489, offset: 0x9489, size: 0x8, addend: 0x0, symName: __ZNSt3__19make_pairB7v160006IRPK7Vector2PS1_EENS_4pairINS_18__unwrap_ref_decayIT_E4typeENS7_IT0_E4typeEEEOS8_OSB_, symObjAddr: 0x746C, symBinAddr: 0x10000A354, symSize: 0x38 }
  - { offsetInCU: 0x9573, offset: 0x9573, size: 0x8, addend: 0x0, symName: __ZNSt3__113__rewrap_iterB7v160006IPK7Vector2S3_NS_18__unwrap_iter_implIS3_Lb1EEEEET_S6_T0_, symObjAddr: 0x76F4, symBinAddr: 0x10000A5DC, symSize: 0x3C }
  - { offsetInCU: 0x95C8, offset: 0x95C8, size: 0x8, addend: 0x0, symName: __ZNSt3__116__pad_and_outputB7v160006IcNS_11char_traitsIcEEEENS_19ostreambuf_iteratorIT_T0_EES6_PKS4_S8_S8_RNS_8ios_baseES4_, symObjAddr: 0x7C30, symBinAddr: 0x10000AB18, symSize: 0x240 }
  - { offsetInCU: 0x9697, offset: 0x9697, size: 0x8, addend: 0x0, symName: __ZNSt3__119__debug_db_insert_cB7v160006INS_12basic_stringIcNS_11char_traitsIcEENS_9allocatorIcEEEEEEvPT_, symObjAddr: 0x80E4, symBinAddr: 0x10000AFCC, symSize: 0x10 }
  - { offsetInCU: 0x96C8, offset: 0x96C8, size: 0x8, addend: 0x0, symName: __ZNSt3__112__to_addressB7v160006IKcEEPT_S3_, symObjAddr: 0x81B0, symBinAddr: 0x10000B098, symSize: 0x14 }
  - { offsetInCU: 0x9730, offset: 0x9730, size: 0x8, addend: 0x0, symName: __ZNSt3__19use_facetB7v160006INS_5ctypeIcEEEERKT_RKNS_6localeE, symObjAddr: 0x8430, symBinAddr: 0x10000B318, symSize: 0x2C }
  - { offsetInCU: 0x9BFF, offset: 0x9BFF, size: 0x8, addend: 0x0, symName: __ZNSt3__118__constexpr_strlenB7v160006EPKc, symObjAddr: 0x84C8, symBinAddr: 0x10000B3B0, symSize: 0x24 }
  - { offsetInCU: 0x9EC9, offset: 0x9EC9, size: 0x8, addend: 0x0, symName: __ZSt28__throw_bad_array_new_lengthB7v160006v, symObjAddr: 0x3810, symBinAddr: 0x1000066F8, symSize: 0x34 }
  - { offsetInCU: 0xC7E4, offset: 0xC7E4, size: 0x8, addend: 0x0, symName: __Z14ElementInDeque7Vector2NSt3__15dequeIS_NS0_9allocatorIS_EEEE, symObjAddr: 0x0, symBinAddr: 0x100002EE8, symSize: 0xE8 }
  - { offsetInCU: 0xC873, offset: 0xC873, size: 0x8, addend: 0x0, symName: __ZNSt3__15dequeI7Vector2NS_9allocatorIS1_EEE5beginB7v160006Ev, symObjAddr: 0xE8, symBinAddr: 0x100002FD0, symSize: 0xA8 }
  - { offsetInCU: 0xC8A8, offset: 0xC8A8, size: 0x8, addend: 0x0, symName: __ZNSt3__15dequeI7Vector2NS_9allocatorIS1_EEE3endB7v160006Ev, symObjAddr: 0x190, symBinAddr: 0x100003078, symSize: 0xBC }
  - { offsetInCU: 0xC8EC, offset: 0xC8EC, size: 0x8, addend: 0x0, symName: __ZNKSt3__116__deque_iteratorI7Vector2PS1_RS1_PS2_lLl512EEdeB7v160006Ev, symObjAddr: 0x280, symBinAddr: 0x100003168, symSize: 0x18 }
  - { offsetInCU: 0xC911, offset: 0xC911, size: 0x8, addend: 0x0, symName: __Z13Vector2Equals7Vector2S_, symObjAddr: 0x298, symBinAddr: 0x100003180, symSize: 0xC4 }
  - { offsetInCU: 0xC95E, offset: 0xC95E, size: 0x8, addend: 0x0, symName: __ZNSt3__116__deque_iteratorI7Vector2PS1_RS1_PS2_lLl512EEppB7v160006Ev, symObjAddr: 0x35C, symBinAddr: 0x100003244, symSize: 0x70 }
  - { offsetInCU: 0xC983, offset: 0xC983, size: 0x8, addend: 0x0, symName: __Z14eventTriggeredd, symObjAddr: 0x3CC, symBinAddr: 0x1000032B4, symSize: 0x84 }
  - { offsetInCU: 0xC9BE, offset: 0xC9BE, size: 0x8, addend: 0x0, symName: _main, symObjAddr: 0x450, symBinAddr: 0x100003338, symSize: 0x28C }
  - { offsetInCU: 0xC9E8, offset: 0xC9E8, size: 0x8, addend: 0x0, symName: __ZNSt3__113basic_ostreamIcNS_11char_traitsIcEEElsB7v160006EPFRS3_S4_E, symObjAddr: 0x724, symBinAddr: 0x10000360C, symSize: 0x2C }
  - { offsetInCU: 0xCB4C, offset: 0xCB4C, size: 0x8, addend: 0x0, symName: __ZN4GameC1Ev, symObjAddr: 0x7A8, symBinAddr: 0x100003690, symSize: 0x2C }
  - { offsetInCU: 0xCB78, offset: 0xCB78, size: 0x8, addend: 0x0, symName: __ZN4Game6UpdateEv, symObjAddr: 0x7D4, symBinAddr: 0x1000036BC, symSize: 0x4C }
  - { offsetInCU: 0xCB9E, offset: 0xCB9E, size: 0x8, addend: 0x0, symName: __ZN4Game4DrawEv, symObjAddr: 0x820, symBinAddr: 0x100003708, symSize: 0x34 }
  - { offsetInCU: 0xCBC4, offset: 0xCBC4, size: 0x8, addend: 0x0, symName: __ZN4GameD1Ev, symObjAddr: 0x854, symBinAddr: 0x10000373C, symSize: 0x2C }
  - { offsetInCU: 0xCBF0, offset: 0xCBF0, size: 0x8, addend: 0x0, symName: __ZN4GameC2Ev, symObjAddr: 0x880, symBinAddr: 0x100003768, symSize: 0xAC }
  - { offsetInCU: 0xCC1C, offset: 0xCC1C, size: 0x8, addend: 0x0, symName: __ZN3DogC1Ev, symObjAddr: 0x92C, symBinAddr: 0x100003814, symSize: 0x2C }
  - { offsetInCU: 0xCC48, offset: 0xCC48, size: 0x8, addend: 0x0, symName: __ZNSt3__15dequeI7Vector2NS_9allocatorIS1_EEEC1ERKS4_, symObjAddr: 0x958, symBinAddr: 0x100003840, symSize: 0x34 }
  - { offsetInCU: 0xCC83, offset: 0xCC83, size: 0x8, addend: 0x0, symName: __ZN4FoodC1ENSt3__15dequeI7Vector2NS0_9allocatorIS2_EEEE, symObjAddr: 0x98C, symBinAddr: 0x100003874, symSize: 0x34 }
  - { offsetInCU: 0xCCBC, offset: 0xCCBC, size: 0x8, addend: 0x0, symName: __ZNSt3__15dequeI7Vector2NS_9allocatorIS1_EEED1B7v160006Ev, symObjAddr: 0x9C0, symBinAddr: 0x1000038A8, symSize: 0x2C }
  - { offsetInCU: 0xCCE6, offset: 0xCCE6, size: 0x8, addend: 0x0, symName: __ZN3DogD1Ev, symObjAddr: 0x9EC, symBinAddr: 0x1000038D4, symSize: 0x2C }
  - { offsetInCU: 0xCD12, offset: 0xCD12, size: 0x8, addend: 0x0, symName: __ZN3DogC2Ev, symObjAddr: 0xA18, symBinAddr: 0x100003900, symSize: 0xA8 }
  - { offsetInCU: 0xCD3E, offset: 0xCD3E, size: 0x8, addend: 0x0, symName: __ZNSt3__15dequeI7Vector2NS_9allocatorIS1_EEEC1ESt16initializer_listIS1_E, symObjAddr: 0xAC0, symBinAddr: 0x1000039A8, symSize: 0x3C }
  - { offsetInCU: 0xCD79, offset: 0xCD79, size: 0x8, addend: 0x0, symName: __ZNSt3__15dequeI7Vector2NS_9allocatorIS1_EEEC2ESt16initializer_listIS1_E, symObjAddr: 0xAFC, symBinAddr: 0x1000039E4, symSize: 0xAC }
  - { offsetInCU: 0xCDB4, offset: 0xCDB4, size: 0x8, addend: 0x0, symName: __ZNSt3__114__split_bufferIP7Vector2NS_9allocatorIS2_EEEC1Ev, symObjAddr: 0xBA8, symBinAddr: 0x100003A90, symSize: 0x2C }
  - { offsetInCU: 0xCDEA, offset: 0xCDEA, size: 0x8, addend: 0x0, symName: __ZNSt3__117__compressed_pairImNS_9allocatorI7Vector2EEEC1B7v160006IiNS_18__default_init_tagEEEOT_OT0_, symObjAddr: 0xBD4, symBinAddr: 0x100003ABC, symSize: 0x3C }
  - { offsetInCU: 0xCE47, offset: 0xCE47, size: 0x8, addend: 0x0, symName: __ZNSt3__15dequeI7Vector2NS_9allocatorIS1_EEE8__appendIPKS1_EEvT_S8_PNS_9enable_ifIXsr27__is_cpp17_forward_iteratorIS8_EE5valueEvE4typeE, symObjAddr: 0xC10, symBinAddr: 0x100003AF8, symSize: 0x21C }
  - { offsetInCU: 0xCF34, offset: 0xCF34, size: 0x8, addend: 0x0, symName: __ZNKSt16initializer_listI7Vector2E5beginB7v160006Ev, symObjAddr: 0xE2C, symBinAddr: 0x100003D14, symSize: 0x18 }
  - { offsetInCU: 0xCF5A, offset: 0xCF5A, size: 0x8, addend: 0x0, symName: __ZNKSt16initializer_listI7Vector2E3endB7v160006Ev, symObjAddr: 0xE44, symBinAddr: 0x100003D2C, symSize: 0x20 }
  - { offsetInCU: 0xCF80, offset: 0xCF80, size: 0x8, addend: 0x0, symName: __ZNSt3__114__split_bufferIP7Vector2NS_9allocatorIS2_EEED1Ev, symObjAddr: 0xE64, symBinAddr: 0x100003D4C, symSize: 0x2C }
  - { offsetInCU: 0xCFAC, offset: 0xCFAC, size: 0x8, addend: 0x0, symName: __ZNSt3__114__split_bufferIP7Vector2NS_9allocatorIS2_EEEC2Ev, symObjAddr: 0xE90, symBinAddr: 0x100003D78, symSize: 0x50 }
  - { offsetInCU: 0xCFDD, offset: 0xCFDD, size: 0x8, addend: 0x0, symName: __ZNSt3__117__compressed_pairIPP7Vector2NS_9allocatorIS2_EEEC1B7v160006IDnNS_18__default_init_tagEEEOT_OT0_, symObjAddr: 0xEE0, symBinAddr: 0x100003DC8, symSize: 0x3C }
  - { offsetInCU: 0xD035, offset: 0xD035, size: 0x8, addend: 0x0, symName: __ZNSt3__117__compressed_pairIPP7Vector2NS_9allocatorIS2_EEEC2B7v160006IDnNS_18__default_init_tagEEEOT_OT0_, symObjAddr: 0xF28, symBinAddr: 0x100003E10, symSize: 0x40 }
  - { offsetInCU: 0xD08D, offset: 0xD08D, size: 0x8, addend: 0x0, symName: __ZNSt3__122__compressed_pair_elemIPP7Vector2Li0ELb0EEC2B7v160006IDnvEEOT_, symObjAddr: 0xF68, symBinAddr: 0x100003E50, symSize: 0x1C }
  - { offsetInCU: 0xD0CF, offset: 0xD0CF, size: 0x8, addend: 0x0, symName: __ZNSt3__122__compressed_pair_elemINS_9allocatorIP7Vector2EELi1ELb1EEC2B7v160006ENS_18__default_init_tagE, symObjAddr: 0xF84, symBinAddr: 0x100003E6C, symSize: 0x2C }
  - { offsetInCU: 0xD103, offset: 0xD103, size: 0x8, addend: 0x0, symName: __ZNSt3__19allocatorIP7Vector2EC2B7v160006Ev, symObjAddr: 0xFB0, symBinAddr: 0x100003E98, symSize: 0x2C }
  - { offsetInCU: 0xD12D, offset: 0xD12D, size: 0x8, addend: 0x0, symName: __ZNSt3__116__non_trivial_ifILb1ENS_9allocatorIP7Vector2EEEC2B7v160006Ev, symObjAddr: 0xFDC, symBinAddr: 0x100003EC4, symSize: 0x14 }
  - { offsetInCU: 0xD157, offset: 0xD157, size: 0x8, addend: 0x0, symName: __ZNSt3__117__compressed_pairImNS_9allocatorI7Vector2EEEC2B7v160006IiNS_18__default_init_tagEEEOT_OT0_, symObjAddr: 0xFF0, symBinAddr: 0x100003ED8, symSize: 0x40 }
  - { offsetInCU: 0xD1AF, offset: 0xD1AF, size: 0x8, addend: 0x0, symName: __ZNSt3__122__compressed_pair_elemImLi0ELb0EEC2B7v160006IivEEOT_, symObjAddr: 0x1030, symBinAddr: 0x100003F18, symSize: 0x24 }
  - { offsetInCU: 0xD1F1, offset: 0xD1F1, size: 0x8, addend: 0x0, symName: __ZNSt3__122__compressed_pair_elemINS_9allocatorI7Vector2EELi1ELb1EEC2B7v160006ENS_18__default_init_tagE, symObjAddr: 0x1054, symBinAddr: 0x100003F3C, symSize: 0x2C }
  - { offsetInCU: 0xD225, offset: 0xD225, size: 0x8, addend: 0x0, symName: __ZNSt3__19allocatorI7Vector2EC2B7v160006Ev, symObjAddr: 0x1080, symBinAddr: 0x100003F68, symSize: 0x2C }
  - { offsetInCU: 0xD24F, offset: 0xD24F, size: 0x8, addend: 0x0, symName: __ZNSt3__116__non_trivial_ifILb1ENS_9allocatorI7Vector2EEEC2B7v160006Ev, symObjAddr: 0x10AC, symBinAddr: 0x100003F94, symSize: 0x14 }
  - { offsetInCU: 0xD279, offset: 0xD279, size: 0x8, addend: 0x0, symName: __ZNSt3__15dequeI7Vector2NS_9allocatorIS1_EEE7__allocB7v160006Ev, symObjAddr: 0x10EC, symBinAddr: 0x100003FD4, symSize: 0x28 }
  - { offsetInCU: 0xD29F, offset: 0xD29F, size: 0x8, addend: 0x0, symName: __ZNKSt3__15dequeI7Vector2NS_9allocatorIS1_EEE12__back_spareB7v160006Ev, symObjAddr: 0x1114, symBinAddr: 0x100003FFC, symSize: 0x54 }
  - { offsetInCU: 0xD2C5, offset: 0xD2C5, size: 0x8, addend: 0x0, symName: __ZNSt3__15dequeI7Vector2NS_9allocatorIS1_EEE19__add_back_capacityEm, symObjAddr: 0x1168, symBinAddr: 0x100004050, symSize: 0x5C0 }
  - { offsetInCU: 0xD3CA, offset: 0xD3CA, size: 0x8, addend: 0x0, symName: __ZNKSt3__116__deque_iteratorI7Vector2PS1_RS1_PS2_lLl512EEplB7v160006El, symObjAddr: 0x1728, symBinAddr: 0x100004610, symSize: 0x40 }
  - { offsetInCU: 0xD431, offset: 0xD431, size: 0x8, addend: 0x0, symName: __ZNSt3__15dequeI7Vector2NS_9allocatorIS1_EEE13__deque_rangeC1B7v160006ENS_16__deque_iteratorIS1_PS1_RS1_PS7_lLl512EEESA_, symObjAddr: 0x1768, symBinAddr: 0x100004650, symSize: 0x4C }
  - { offsetInCU: 0xD479, offset: 0xD479, size: 0x8, addend: 0x0, symName: __ZNKSt3__15dequeI7Vector2NS_9allocatorIS1_EEE13__deque_range5beginB7v160006Ev, symObjAddr: 0x17B4, symBinAddr: 0x10000469C, symSize: 0x24 }
  - { offsetInCU: 0xD49F, offset: 0xD49F, size: 0x8, addend: 0x0, symName: __ZNKSt3__15dequeI7Vector2NS_9allocatorIS1_EEE13__deque_range3endB7v160006Ev, symObjAddr: 0x17D8, symBinAddr: 0x1000046C0, symSize: 0x50 }
  - { offsetInCU: 0xD4C5, offset: 0xD4C5, size: 0x8, addend: 0x0, symName: __ZNKSt3__15dequeI7Vector2NS_9allocatorIS1_EEE13__deque_rangedeB7v160006Ev, symObjAddr: 0x185C, symBinAddr: 0x100004744, symSize: 0x7C }
  - { offsetInCU: 0xD4FF, offset: 0xD4FF, size: 0x8, addend: 0x0, symName: __ZNSt3__15dequeI7Vector2NS_9allocatorIS1_EEE21_ConstructTransactionC1B7v160006EPS4_RNS4_19__deque_block_rangeE, symObjAddr: 0x18D8, symBinAddr: 0x1000047C0, symSize: 0x3C }
  - { offsetInCU: 0xD547, offset: 0xD547, size: 0x8, addend: 0x0, symName: __ZNSt3__116allocator_traitsINS_9allocatorI7Vector2EEE9constructB7v160006IS2_JRKS2_EvEEvRS3_PT_DpOT0_, symObjAddr: 0x1914, symBinAddr: 0x1000047FC, symSize: 0x34 }
  - { offsetInCU: 0xD59E, offset: 0xD59E, size: 0x8, addend: 0x0, symName: __ZNSt3__15dequeI7Vector2NS_9allocatorIS1_EEE21_ConstructTransactionD1B7v160006Ev, symObjAddr: 0x195C, symBinAddr: 0x100004844, symSize: 0x2C }
  - { offsetInCU: 0xD5C8, offset: 0xD5C8, size: 0x8, addend: 0x0, symName: __ZNSt3__15dequeI7Vector2NS_9allocatorIS1_EEE13__deque_rangeppB7v160006Ev, symObjAddr: 0x1988, symBinAddr: 0x100004870, symSize: 0x64 }
  - { offsetInCU: 0xD5EE, offset: 0xD5EE, size: 0x8, addend: 0x0, symName: __ZNSt3__117__compressed_pairImNS_9allocatorI7Vector2EEE6secondB7v160006Ev, symObjAddr: 0x1A14, symBinAddr: 0x1000048FC, symSize: 0x24 }
  - { offsetInCU: 0xD614, offset: 0xD614, size: 0x8, addend: 0x0, symName: __ZNSt3__122__compressed_pair_elemINS_9allocatorI7Vector2EELi1ELb1EE5__getB7v160006Ev, symObjAddr: 0x1A38, symBinAddr: 0x100004920, symSize: 0x14 }
  - { offsetInCU: 0xD63A, offset: 0xD63A, size: 0x8, addend: 0x0, symName: __ZNKSt3__15dequeI7Vector2NS_9allocatorIS1_EEE10__capacityB7v160006Ev, symObjAddr: 0x1A4C, symBinAddr: 0x100004934, symSize: 0x60 }
  - { offsetInCU: 0xD660, offset: 0xD660, size: 0x8, addend: 0x0, symName: __ZNKSt3__15dequeI7Vector2NS_9allocatorIS1_EEE4sizeB7v160006Ev, symObjAddr: 0x1AAC, symBinAddr: 0x100004994, symSize: 0x28 }
  - { offsetInCU: 0xD686, offset: 0xD686, size: 0x8, addend: 0x0, symName: __ZNKSt3__114__split_bufferIP7Vector2NS_9allocatorIS2_EEE4sizeB7v160006Ev, symObjAddr: 0x1AD4, symBinAddr: 0x1000049BC, symSize: 0x28 }
  - { offsetInCU: 0xD6AC, offset: 0xD6AC, size: 0x8, addend: 0x0, symName: __ZNKSt3__15dequeI7Vector2NS_9allocatorIS1_EEE6__sizeB7v160006Ev, symObjAddr: 0x1AFC, symBinAddr: 0x1000049E4, symSize: 0x28 }
  - { offsetInCU: 0xD6D2, offset: 0xD6D2, size: 0x8, addend: 0x0, symName: __ZNKSt3__117__compressed_pairImNS_9allocatorI7Vector2EEE5firstB7v160006Ev, symObjAddr: 0x1B24, symBinAddr: 0x100004A0C, symSize: 0x24 }
  - { offsetInCU: 0xD6F8, offset: 0xD6F8, size: 0x8, addend: 0x0, symName: __ZNKSt3__122__compressed_pair_elemImLi0ELb0EE5__getB7v160006Ev, symObjAddr: 0x1B48, symBinAddr: 0x100004A30, symSize: 0x14 }
  - { offsetInCU: 0xD71E, offset: 0xD71E, size: 0x8, addend: 0x0, symName: __ZNSt3__15dequeI7Vector2NS_9allocatorIS1_EEE18__recommend_blocksB7v160006Em, symObjAddr: 0x1B5C, symBinAddr: 0x100004A44, symSize: 0x40 }
  - { offsetInCU: 0xD742, offset: 0xD742, size: 0x8, addend: 0x0, symName: __ZNKSt3__114__split_bufferIP7Vector2NS_9allocatorIS2_EEE5emptyB7v160006Ev, symObjAddr: 0x1B9C, symBinAddr: 0x100004A84, symSize: 0x28 }
  - { offsetInCU: 0xD768, offset: 0xD768, size: 0x8, addend: 0x0, symName: __ZNKSt3__15dequeI7Vector2NS_9allocatorIS1_EEE13__front_spareB7v160006Ev, symObjAddr: 0x1BC4, symBinAddr: 0x100004AAC, symSize: 0x18 }
  - { offsetInCU: 0xD78E, offset: 0xD78E, size: 0x8, addend: 0x0, symName: __ZNSt3__114__split_bufferIP7Vector2NS_9allocatorIS2_EEE5frontB7v160006Ev, symObjAddr: 0x1C08, symBinAddr: 0x100004AF0, symSize: 0x18 }
  - { offsetInCU: 0xD7B4, offset: 0xD7B4, size: 0x8, addend: 0x0, symName: __ZNSt3__114__split_bufferIP7Vector2NS_9allocatorIS2_EEE9pop_frontB7v160006Ev, symObjAddr: 0x1C20, symBinAddr: 0x100004B08, symSize: 0x2C }
  - { offsetInCU: 0xD7DA, offset: 0xD7DA, size: 0x8, addend: 0x0, symName: __ZNSt3__114__split_bufferIP7Vector2NS_9allocatorIS2_EEE9push_backB7v160006ERKS2_, symObjAddr: 0x1C4C, symBinAddr: 0x100004B34, symSize: 0x260 }
  - { offsetInCU: 0xD853, offset: 0xD853, size: 0x8, addend: 0x0, symName: __ZNKSt3__114__split_bufferIP7Vector2NS_9allocatorIS2_EEE8capacityB7v160006Ev, symObjAddr: 0x1EAC, symBinAddr: 0x100004D94, symSize: 0x40 }
  - { offsetInCU: 0xD879, offset: 0xD879, size: 0x8, addend: 0x0, symName: __ZNKSt3__114__split_bufferIP7Vector2NS_9allocatorIS2_EEE12__back_spareB7v160006Ev, symObjAddr: 0x1EEC, symBinAddr: 0x100004DD4, symSize: 0x40 }
  - { offsetInCU: 0xD89F, offset: 0xD89F, size: 0x8, addend: 0x0, symName: __ZNSt3__114__split_bufferIP7Vector2NS_9allocatorIS2_EEE9push_backEOS2_, symObjAddr: 0x1F2C, symBinAddr: 0x100004E14, symSize: 0x260 }
  - { offsetInCU: 0xD918, offset: 0xD918, size: 0x8, addend: 0x0, symName: __ZNSt3__116allocator_traitsINS_9allocatorI7Vector2EEE8allocateB7v160006ERS3_m, symObjAddr: 0x218C, symBinAddr: 0x100005074, symSize: 0x2C }
  - { offsetInCU: 0xD94B, offset: 0xD94B, size: 0x8, addend: 0x0, symName: __ZNSt3__114__split_bufferIP7Vector2NS_9allocatorIS2_EEE10push_frontEOS2_, symObjAddr: 0x21B8, symBinAddr: 0x1000050A0, symSize: 0x25C }
  - { offsetInCU: 0xD9C4, offset: 0xD9C4, size: 0x8, addend: 0x0, symName: __ZNSt3__114__split_bufferIP7Vector2NS_9allocatorIS2_EEE7__allocB7v160006Ev, symObjAddr: 0x2440, symBinAddr: 0x100005328, symSize: 0x28 }
  - { offsetInCU: 0xD9EA, offset: 0xD9EA, size: 0x8, addend: 0x0, symName: __ZNSt3__114__split_bufferIP7Vector2RNS_9allocatorIS2_EEEC1EmmS5_, symObjAddr: 0x2468, symBinAddr: 0x100005350, symSize: 0x44 }
  - { offsetInCU: 0xDA40, offset: 0xDA40, size: 0x8, addend: 0x0, symName: __ZNSt3__114__split_bufferIP7Vector2RNS_9allocatorIS2_EEE9push_backEOS2_, symObjAddr: 0x24AC, symBinAddr: 0x100005394, symSize: 0x260 }
  - { offsetInCU: 0xDAB9, offset: 0xDAB9, size: 0x8, addend: 0x0, symName: __ZNSt3__114__split_bufferIP7Vector2RNS_9allocatorIS2_EEE5beginB7v160006Ev, symObjAddr: 0x270C, symBinAddr: 0x1000055F4, symSize: 0x18 }
  - { offsetInCU: 0xDADF, offset: 0xDADF, size: 0x8, addend: 0x0, symName: __ZNSt3__114__split_bufferIP7Vector2RNS_9allocatorIS2_EEE3endB7v160006Ev, symObjAddr: 0x2724, symBinAddr: 0x10000560C, symSize: 0x18 }
  - { offsetInCU: 0xDB05, offset: 0xDB05, size: 0x8, addend: 0x0, symName: __ZNSt3__116allocator_traitsINS_9allocatorI7Vector2EEE10deallocateB7v160006ERS3_PS2_m, symObjAddr: 0x273C, symBinAddr: 0x100005624, symSize: 0x34 }
  - { offsetInCU: 0xDB47, offset: 0xDB47, size: 0x8, addend: 0x0, symName: __ZNSt3__114__split_bufferIP7Vector2RNS_9allocatorIS2_EEE9push_backB7v160006ERKS2_, symObjAddr: 0x2770, symBinAddr: 0x100005658, symSize: 0x260 }
  - { offsetInCU: 0xDBC0, offset: 0xDBC0, size: 0x8, addend: 0x0, symName: __ZNSt3__114__split_bufferIP7Vector2NS_9allocatorIS2_EEE3endB7v160006Ev, symObjAddr: 0x29D0, symBinAddr: 0x1000058B8, symSize: 0x18 }
  - { offsetInCU: 0xDBE6, offset: 0xDBE6, size: 0x8, addend: 0x0, symName: __ZNSt3__114__split_bufferIP7Vector2NS_9allocatorIS2_EEE5beginB7v160006Ev, symObjAddr: 0x29E8, symBinAddr: 0x1000058D0, symSize: 0x18 }
  - { offsetInCU: 0xDC0C, offset: 0xDC0C, size: 0x8, addend: 0x0, symName: __ZNSt3__114__split_bufferIP7Vector2RNS_9allocatorIS2_EEE10push_frontERKS2_, symObjAddr: 0x2A00, symBinAddr: 0x1000058E8, symSize: 0x25C }
  - { offsetInCU: 0xDC85, offset: 0xDC85, size: 0x8, addend: 0x0, symName: __ZNSt3__114__split_bufferIP7Vector2NS_9allocatorIS2_EEE9__end_capB7v160006Ev, symObjAddr: 0x2C98, symBinAddr: 0x100005B80, symSize: 0x28 }
  - { offsetInCU: 0xDCAB, offset: 0xDCAB, size: 0x8, addend: 0x0, symName: __ZNSt3__114__split_bufferIP7Vector2RNS_9allocatorIS2_EEE9__end_capB7v160006Ev, symObjAddr: 0x2CC0, symBinAddr: 0x100005BA8, symSize: 0x28 }
  - { offsetInCU: 0xDCD1, offset: 0xDCD1, size: 0x8, addend: 0x0, symName: __ZNSt3__114__split_bufferIP7Vector2RNS_9allocatorIS2_EEED1Ev, symObjAddr: 0x2CE8, symBinAddr: 0x100005BD0, symSize: 0x2C }
  - { offsetInCU: 0xDD07, offset: 0xDD07, size: 0x8, addend: 0x0, symName: __ZNKSt3__16__lessImmEclB7v160006ERKmS3_, symObjAddr: 0x2D68, symBinAddr: 0x100005C50, symSize: 0x34 }
  - { offsetInCU: 0xDD49, offset: 0xDD49, size: 0x8, addend: 0x0, symName: __ZNSt3__114__split_bufferIP7Vector2NS_9allocatorIS2_EEE19__destruct_at_beginB7v160006EPS2_, symObjAddr: 0x2D9C, symBinAddr: 0x100005C84, symSize: 0x2C }
  - { offsetInCU: 0xDD7D, offset: 0xDD7D, size: 0x8, addend: 0x0, symName: __ZNSt3__114__split_bufferIP7Vector2NS_9allocatorIS2_EEE19__destruct_at_beginEPS2_NS_17integral_constantIbLb1EEE, symObjAddr: 0x2DC8, symBinAddr: 0x100005CB0, symSize: 0x20 }
  - { offsetInCU: 0xDDBD, offset: 0xDDBD, size: 0x8, addend: 0x0, symName: __ZNSt3__114__split_bufferIP7Vector2RNS_9allocatorIS2_EEE18__construct_at_endINS_13move_iteratorIPS2_EEEENS_9enable_ifIXsr27__is_cpp17_forward_iteratorIT_EE5valueEvE4typeESC_SC_, symObjAddr: 0x2E28, symBinAddr: 0x100005D10, symSize: 0xFC }
  - { offsetInCU: 0xDE19, offset: 0xDE19, size: 0x8, addend: 0x0, symName: __ZNSt3__113move_iteratorIPP7Vector2EC1B7v160006ES3_, symObjAddr: 0x2F24, symBinAddr: 0x100005E0C, symSize: 0x34 }
  - { offsetInCU: 0xDE51, offset: 0xDE51, size: 0x8, addend: 0x0, symName: __ZNSt3__116allocator_traitsINS_9allocatorIP7Vector2EEE9constructB7v160006IS3_JRKS3_EvEEvRS4_PT_DpOT0_, symObjAddr: 0x2F58, symBinAddr: 0x100005E40, symSize: 0x34 }
  - { offsetInCU: 0xDECB, offset: 0xDECB, size: 0x8, addend: 0x0, symName: __ZNKSt3__114__move_trivialclB7v160006IP7Vector2S3_Li0EEENS_4pairIPT_PT0_EES6_S6_S8_, symObjAddr: 0x313C, symBinAddr: 0x100006024, symSize: 0x48 }
  - { offsetInCU: 0xDF38, offset: 0xDF38, size: 0x8, addend: 0x0, symName: __ZNSt3__14pairIPP7Vector2S3_EC1B7v160006IRS3_S3_LPv0EEEOT_OT0_, symObjAddr: 0x3304, symBinAddr: 0x1000061EC, symSize: 0x3C }
  - { offsetInCU: 0xDF96, offset: 0xDF96, size: 0x8, addend: 0x0, symName: __ZNSt3__14pairIPP7Vector2S3_EC2B7v160006IRS3_S3_LPv0EEEOT_OT0_, symObjAddr: 0x3340, symBinAddr: 0x100006228, symSize: 0x34 }
  - { offsetInCU: 0xDFF4, offset: 0xDFF4, size: 0x8, addend: 0x0, symName: __ZNSt3__118__unwrap_iter_implIPP7Vector2Lb1EE8__unwrapB7v160006ES3_, symObjAddr: 0x3374, symBinAddr: 0x10000625C, symSize: 0x24 }
  - { offsetInCU: 0xE017, offset: 0xE017, size: 0x8, addend: 0x0, symName: __ZNSt3__14pairIPP7Vector2S3_EC1B7v160006IS3_S3_LPv0EEEOT_OT0_, symObjAddr: 0x3398, symBinAddr: 0x100006280, symSize: 0x3C }
  - { offsetInCU: 0xE075, offset: 0xE075, size: 0x8, addend: 0x0, symName: __ZNSt3__14pairIPP7Vector2S3_EC2B7v160006IS3_S3_LPv0EEEOT_OT0_, symObjAddr: 0x33D4, symBinAddr: 0x1000062BC, symSize: 0x34 }
  - { offsetInCU: 0xE0D3, offset: 0xE0D3, size: 0x8, addend: 0x0, symName: __ZNSt3__118__unwrap_iter_implIPP7Vector2Lb1EE8__rewrapB7v160006ES3_S3_, symObjAddr: 0x3408, symBinAddr: 0x1000062F0, symSize: 0x50 }
  - { offsetInCU: 0xE10E, offset: 0xE10E, size: 0x8, addend: 0x0, symName: __ZNSt3__114__split_bufferIP7Vector2RNS_9allocatorIS2_EEE21_ConstructTransactionC1B7v160006EPPS2_m, symObjAddr: 0x3494, symBinAddr: 0x10000637C, symSize: 0x3C }
  - { offsetInCU: 0xE154, offset: 0xE154, size: 0x8, addend: 0x0, symName: __ZNSt3__116allocator_traitsINS_9allocatorIP7Vector2EEE9constructB7v160006IS3_JS3_EvEEvRS4_PT_DpOT0_, symObjAddr: 0x34D0, symBinAddr: 0x1000063B8, symSize: 0x34 }
  - { offsetInCU: 0xE1AB, offset: 0xE1AB, size: 0x8, addend: 0x0, symName: __ZNSt3__114__split_bufferIP7Vector2RNS_9allocatorIS2_EEE7__allocB7v160006Ev, symObjAddr: 0x3504, symBinAddr: 0x1000063EC, symSize: 0x28 }
  - { offsetInCU: 0xE1D1, offset: 0xE1D1, size: 0x8, addend: 0x0, symName: __ZNKSt3__113move_iteratorIPP7Vector2EdeB7v160006Ev, symObjAddr: 0x352C, symBinAddr: 0x100006414, symSize: 0x18 }
  - { offsetInCU: 0xE1F7, offset: 0xE1F7, size: 0x8, addend: 0x0, symName: __ZNSt3__113move_iteratorIPP7Vector2EppB7v160006Ev, symObjAddr: 0x3544, symBinAddr: 0x10000642C, symSize: 0x20 }
  - { offsetInCU: 0xE21D, offset: 0xE21D, size: 0x8, addend: 0x0, symName: __ZNSt3__114__split_bufferIP7Vector2RNS_9allocatorIS2_EEE21_ConstructTransactionD1B7v160006Ev, symObjAddr: 0x3564, symBinAddr: 0x10000644C, symSize: 0x2C }
  - { offsetInCU: 0xE247, offset: 0xE247, size: 0x8, addend: 0x0, symName: __ZNKSt3__113move_iteratorIPP7Vector2E4baseB7v160006Ev, symObjAddr: 0x3608, symBinAddr: 0x1000064F0, symSize: 0x18 }
  - { offsetInCU: 0xE26D, offset: 0xE26D, size: 0x8, addend: 0x0, symName: __ZNSt3__114__split_bufferIP7Vector2RNS_9allocatorIS2_EEE21_ConstructTransactionC2B7v160006EPPS2_m, symObjAddr: 0x3620, symBinAddr: 0x100006508, symSize: 0x44 }
  - { offsetInCU: 0xE2B3, offset: 0xE2B3, size: 0x8, addend: 0x0, symName: __ZNSt3__19allocatorIP7Vector2E9constructB7v160006IS2_JS2_EEEvPT_DpOT0_, symObjAddr: 0x3664, symBinAddr: 0x10000654C, symSize: 0x28 }
  - { offsetInCU: 0xE309, offset: 0xE309, size: 0x8, addend: 0x0, symName: __ZNSt3__117__compressed_pairIPP7Vector2RNS_9allocatorIS2_EEE6secondB7v160006Ev, symObjAddr: 0x368C, symBinAddr: 0x100006574, symSize: 0x28 }
  - { offsetInCU: 0xE32F, offset: 0xE32F, size: 0x8, addend: 0x0, symName: __ZNSt3__122__compressed_pair_elemIRNS_9allocatorIP7Vector2EELi1ELb0EE5__getB7v160006Ev, symObjAddr: 0x36B4, symBinAddr: 0x10000659C, symSize: 0x18 }
  - { offsetInCU: 0xE355, offset: 0xE355, size: 0x8, addend: 0x0, symName: __ZNSt3__114__split_bufferIP7Vector2RNS_9allocatorIS2_EEE21_ConstructTransactionD2B7v160006Ev, symObjAddr: 0x36CC, symBinAddr: 0x1000065B4, symSize: 0x20 }
  - { offsetInCU: 0xE37F, offset: 0xE37F, size: 0x8, addend: 0x0, symName: __ZNSt3__113move_iteratorIPP7Vector2EC2B7v160006ES3_, symObjAddr: 0x36EC, symBinAddr: 0x1000065D4, symSize: 0x20 }
  - { offsetInCU: 0xE3B7, offset: 0xE3B7, size: 0x8, addend: 0x0, symName: __ZNSt3__19allocatorIP7Vector2E9constructB7v160006IS2_JRKS2_EEEvPT_DpOT0_, symObjAddr: 0x370C, symBinAddr: 0x1000065F4, symSize: 0x28 }
  - { offsetInCU: 0xE40D, offset: 0xE40D, size: 0x8, addend: 0x0, symName: __ZNKSt3__114__split_bufferIP7Vector2NS_9allocatorIS2_EEE9__end_capB7v160006Ev, symObjAddr: 0x3734, symBinAddr: 0x10000661C, symSize: 0x28 }
  - { offsetInCU: 0xE433, offset: 0xE433, size: 0x8, addend: 0x0, symName: __ZNKSt3__117__compressed_pairIPP7Vector2NS_9allocatorIS2_EEE5firstB7v160006Ev, symObjAddr: 0x375C, symBinAddr: 0x100006644, symSize: 0x24 }
  - { offsetInCU: 0xE459, offset: 0xE459, size: 0x8, addend: 0x0, symName: __ZNKSt3__122__compressed_pair_elemIPP7Vector2Li0ELb0EE5__getB7v160006Ev, symObjAddr: 0x3780, symBinAddr: 0x100006668, symSize: 0x14 }
  - { offsetInCU: 0xE47F, offset: 0xE47F, size: 0x8, addend: 0x0, symName: __ZNSt3__19allocatorI7Vector2E8allocateB7v160006Em, symObjAddr: 0x3794, symBinAddr: 0x10000667C, symSize: 0x58 }
  - { offsetInCU: 0xE4BD, offset: 0xE4BD, size: 0x8, addend: 0x0, symName: __ZNSt3__116allocator_traitsINS_9allocatorI7Vector2EEE8max_sizeB7v160006IS3_vEEmRKS3_, symObjAddr: 0x37EC, symBinAddr: 0x1000066D4, symSize: 0x24 }
  - { offsetInCU: 0xE4EB, offset: 0xE4EB, size: 0x8, addend: 0x0, symName: __ZNKSt3__19allocatorI7Vector2E8max_sizeB7v160006Ev, symObjAddr: 0x386C, symBinAddr: 0x100006754, symSize: 0x14 }
  - { offsetInCU: 0xE51B, offset: 0xE51B, size: 0x8, addend: 0x0, symName: __ZNKSt3__123__move_backward_trivialclB7v160006IP7Vector2S3_Li0EEENS_4pairIPT_PT0_EES6_S6_S8_, symObjAddr: 0x3A20, symBinAddr: 0x100006908, symSize: 0x48 }
  - { offsetInCU: 0xE583, offset: 0xE583, size: 0x8, addend: 0x0, symName: __ZNSt3__14pairIPP7Vector2S3_EC1B7v160006IRS3_S6_LPv0EEEOT_OT0_, symObjAddr: 0x3B34, symBinAddr: 0x100006A1C, symSize: 0x3C }
  - { offsetInCU: 0xE5E1, offset: 0xE5E1, size: 0x8, addend: 0x0, symName: __ZNSt3__14pairIPP7Vector2S3_EC2B7v160006IRS3_S6_LPv0EEEOT_OT0_, symObjAddr: 0x3B70, symBinAddr: 0x100006A58, symSize: 0x34 }
  - { offsetInCU: 0xE63F, offset: 0xE63F, size: 0x8, addend: 0x0, symName: __ZNSt3__117__compressed_pairIPP7Vector2NS_9allocatorIS2_EEE6secondB7v160006Ev, symObjAddr: 0x3BF8, symBinAddr: 0x100006AE0, symSize: 0x24 }
  - { offsetInCU: 0xE665, offset: 0xE665, size: 0x8, addend: 0x0, symName: __ZNSt3__122__compressed_pair_elemINS_9allocatorIP7Vector2EELi1ELb1EE5__getB7v160006Ev, symObjAddr: 0x3C1C, symBinAddr: 0x100006B04, symSize: 0x14 }
  - { offsetInCU: 0xE68B, offset: 0xE68B, size: 0x8, addend: 0x0, symName: __ZNSt3__114__split_bufferIP7Vector2RNS_9allocatorIS2_EEEC2EmmS5_, symObjAddr: 0x3C30, symBinAddr: 0x100006B18, symSize: 0xD4 }
  - { offsetInCU: 0xE6FF, offset: 0xE6FF, size: 0x8, addend: 0x0, symName: __ZNSt3__117__compressed_pairIPP7Vector2RNS_9allocatorIS2_EEEC1B7v160006IDnS6_EEOT_OT0_, symObjAddr: 0x3D04, symBinAddr: 0x100006BEC, symSize: 0x3C }
  - { offsetInCU: 0xE757, offset: 0xE757, size: 0x8, addend: 0x0, symName: __ZNSt3__117__compressed_pairIPP7Vector2RNS_9allocatorIS2_EEEC2B7v160006IDnS6_EEOT_OT0_, symObjAddr: 0x3D80, symBinAddr: 0x100006C68, symSize: 0x48 }
  - { offsetInCU: 0xE7AF, offset: 0xE7AF, size: 0x8, addend: 0x0, symName: __ZNSt3__122__compressed_pair_elemIRNS_9allocatorIP7Vector2EELi1ELb0EEC2B7v160006IS5_vEEOT_, symObjAddr: 0x3DC8, symBinAddr: 0x100006CB0, symSize: 0x20 }
  - { offsetInCU: 0xE7F1, offset: 0xE7F1, size: 0x8, addend: 0x0, symName: __ZNSt3__19allocatorIP7Vector2E8allocateB7v160006Em, symObjAddr: 0x3DE8, symBinAddr: 0x100006CD0, symSize: 0x58 }
  - { offsetInCU: 0xE82F, offset: 0xE82F, size: 0x8, addend: 0x0, symName: __ZNSt3__116allocator_traitsINS_9allocatorIP7Vector2EEE8max_sizeB7v160006IS4_vEEmRKS4_, symObjAddr: 0x3E40, symBinAddr: 0x100006D28, symSize: 0x24 }
  - { offsetInCU: 0xE85D, offset: 0xE85D, size: 0x8, addend: 0x0, symName: __ZNKSt3__19allocatorIP7Vector2E8max_sizeB7v160006Ev, symObjAddr: 0x3E64, symBinAddr: 0x100006D4C, symSize: 0x14 }
  - { offsetInCU: 0xE883, offset: 0xE883, size: 0x8, addend: 0x0, symName: __ZNSt3__19allocatorI7Vector2E10deallocateB7v160006EPS1_m, symObjAddr: 0x3E78, symBinAddr: 0x100006D60, symSize: 0x40 }
  - { offsetInCU: 0xE8C5, offset: 0xE8C5, size: 0x8, addend: 0x0, symName: __ZNSt3__117__compressed_pairIPP7Vector2NS_9allocatorIS2_EEE5firstB7v160006Ev, symObjAddr: 0x3F34, symBinAddr: 0x100006E1C, symSize: 0x24 }
  - { offsetInCU: 0xE8EB, offset: 0xE8EB, size: 0x8, addend: 0x0, symName: __ZNSt3__122__compressed_pair_elemIPP7Vector2Li0ELb0EE5__getB7v160006Ev, symObjAddr: 0x3F58, symBinAddr: 0x100006E40, symSize: 0x14 }
  - { offsetInCU: 0xE911, offset: 0xE911, size: 0x8, addend: 0x0, symName: __ZNSt3__117__compressed_pairIPP7Vector2RNS_9allocatorIS2_EEE5firstB7v160006Ev, symObjAddr: 0x3F6C, symBinAddr: 0x100006E54, symSize: 0x24 }
  - { offsetInCU: 0xE937, offset: 0xE937, size: 0x8, addend: 0x0, symName: __ZNSt3__114__split_bufferIP7Vector2RNS_9allocatorIS2_EEED2Ev, symObjAddr: 0x3F90, symBinAddr: 0x100006E78, symSize: 0x8C }
  - { offsetInCU: 0xE963, offset: 0xE963, size: 0x8, addend: 0x0, symName: __ZNSt3__114__split_bufferIP7Vector2RNS_9allocatorIS2_EEE5clearB7v160006Ev, symObjAddr: 0x401C, symBinAddr: 0x100006F04, symSize: 0x28 }
  - { offsetInCU: 0xE989, offset: 0xE989, size: 0x8, addend: 0x0, symName: __ZNSt3__116allocator_traitsINS_9allocatorIP7Vector2EEE10deallocateB7v160006ERS4_PS3_m, symObjAddr: 0x4044, symBinAddr: 0x100006F2C, symSize: 0x34 }
  - { offsetInCU: 0xE9CB, offset: 0xE9CB, size: 0x8, addend: 0x0, symName: __ZNKSt3__114__split_bufferIP7Vector2RNS_9allocatorIS2_EEE8capacityB7v160006Ev, symObjAddr: 0x4078, symBinAddr: 0x100006F60, symSize: 0x40 }
  - { offsetInCU: 0xE9F1, offset: 0xE9F1, size: 0x8, addend: 0x0, symName: __ZNSt3__114__split_bufferIP7Vector2RNS_9allocatorIS2_EEE17__destruct_at_endB7v160006EPS2_, symObjAddr: 0x40B8, symBinAddr: 0x100006FA0, symSize: 0x2C }
  - { offsetInCU: 0xEA25, offset: 0xEA25, size: 0x8, addend: 0x0, symName: __ZNSt3__114__split_bufferIP7Vector2RNS_9allocatorIS2_EEE17__destruct_at_endB7v160006EPS2_NS_17integral_constantIbLb0EEE, symObjAddr: 0x40E4, symBinAddr: 0x100006FCC, symSize: 0x80 }
  - { offsetInCU: 0xEA65, offset: 0xEA65, size: 0x8, addend: 0x0, symName: __ZNSt3__116allocator_traitsINS_9allocatorIP7Vector2EEE7destroyB7v160006IS3_vEEvRS4_PT_, symObjAddr: 0x4164, symBinAddr: 0x10000704C, symSize: 0x2C }
  - { offsetInCU: 0xEAA2, offset: 0xEAA2, size: 0x8, addend: 0x0, symName: __ZNSt3__19allocatorIP7Vector2E7destroyB7v160006EPS2_, symObjAddr: 0x4190, symBinAddr: 0x100007078, symSize: 0x14 }
  - { offsetInCU: 0xEAD6, offset: 0xEAD6, size: 0x8, addend: 0x0, symName: __ZNSt3__19allocatorIP7Vector2E10deallocateB7v160006EPS2_m, symObjAddr: 0x41A4, symBinAddr: 0x10000708C, symSize: 0x40 }
  - { offsetInCU: 0xEB18, offset: 0xEB18, size: 0x8, addend: 0x0, symName: __ZNKSt3__114__split_bufferIP7Vector2RNS_9allocatorIS2_EEE9__end_capB7v160006Ev, symObjAddr: 0x41E4, symBinAddr: 0x1000070CC, symSize: 0x28 }
  - { offsetInCU: 0xEB3E, offset: 0xEB3E, size: 0x8, addend: 0x0, symName: __ZNKSt3__117__compressed_pairIPP7Vector2RNS_9allocatorIS2_EEE5firstB7v160006Ev, symObjAddr: 0x420C, symBinAddr: 0x1000070F4, symSize: 0x24 }
  - { offsetInCU: 0xEB64, offset: 0xEB64, size: 0x8, addend: 0x0, symName: __ZNSt3__116__deque_iteratorI7Vector2PS1_RS1_PS2_lLl512EEpLB7v160006El, symObjAddr: 0x4230, symBinAddr: 0x100007118, symSize: 0x110 }
  - { offsetInCU: 0xEBB7, offset: 0xEBB7, size: 0x8, addend: 0x0, symName: __ZNSt3__15dequeI7Vector2NS_9allocatorIS1_EEE13__deque_rangeC2B7v160006ENS_16__deque_iteratorIS1_PS1_RS1_PS7_lLl512EEESA_, symObjAddr: 0x4340, symBinAddr: 0x100007228, symSize: 0x34 }
  - { offsetInCU: 0xEBFF, offset: 0xEBFF, size: 0x8, addend: 0x0, symName: __ZNSt3__15dequeI7Vector2NS_9allocatorIS1_EEE19__deque_block_rangeC1B7v160006EPS1_S6_, symObjAddr: 0x43D4, symBinAddr: 0x1000072BC, symSize: 0x3C }
  - { offsetInCU: 0xEC47, offset: 0xEC47, size: 0x8, addend: 0x0, symName: __ZNSt3__15dequeI7Vector2NS_9allocatorIS1_EEE19__deque_block_rangeC2B7v160006EPS1_S6_, symObjAddr: 0x4410, symBinAddr: 0x1000072F8, symSize: 0x2C }
  - { offsetInCU: 0xEC8F, offset: 0xEC8F, size: 0x8, addend: 0x0, symName: __ZNSt3__15dequeI7Vector2NS_9allocatorIS1_EEE21_ConstructTransactionC2B7v160006EPS4_RNS4_19__deque_block_rangeE, symObjAddr: 0x443C, symBinAddr: 0x100007324, symSize: 0x48 }
  - { offsetInCU: 0xECD7, offset: 0xECD7, size: 0x8, addend: 0x0, symName: __ZNSt3__19allocatorI7Vector2E9constructB7v160006IS1_JRKS1_EEEvPT_DpOT0_, symObjAddr: 0x4484, symBinAddr: 0x10000736C, symSize: 0x28 }
  - { offsetInCU: 0xED2D, offset: 0xED2D, size: 0x8, addend: 0x0, symName: __ZNSt3__15dequeI7Vector2NS_9allocatorIS1_EEE21_ConstructTransactionD2B7v160006Ev, symObjAddr: 0x44AC, symBinAddr: 0x100007394, symSize: 0x5C }
  - { offsetInCU: 0xED57, offset: 0xED57, size: 0x8, addend: 0x0, symName: __ZNSt3__15dequeI7Vector2NS_9allocatorIS1_EEE6__sizeB7v160006Ev, symObjAddr: 0x4508, symBinAddr: 0x1000073F0, symSize: 0x28 }
  - { offsetInCU: 0xED7D, offset: 0xED7D, size: 0x8, addend: 0x0, symName: __ZNSt3__117__compressed_pairImNS_9allocatorI7Vector2EEE5firstB7v160006Ev, symObjAddr: 0x4530, symBinAddr: 0x100007418, symSize: 0x24 }
  - { offsetInCU: 0xEDA3, offset: 0xEDA3, size: 0x8, addend: 0x0, symName: __ZNSt3__122__compressed_pair_elemImLi0ELb0EE5__getB7v160006Ev, symObjAddr: 0x4554, symBinAddr: 0x10000743C, symSize: 0x14 }
  - { offsetInCU: 0xEDC9, offset: 0xEDC9, size: 0x8, addend: 0x0, symName: __ZNSt3__114__split_bufferIP7Vector2NS_9allocatorIS2_EEED2Ev, symObjAddr: 0x4568, symBinAddr: 0x100007450, symSize: 0x80 }
  - { offsetInCU: 0xEDF5, offset: 0xEDF5, size: 0x8, addend: 0x0, symName: __ZNSt3__114__split_bufferIP7Vector2NS_9allocatorIS2_EEE5clearB7v160006Ev, symObjAddr: 0x45E8, symBinAddr: 0x1000074D0, symSize: 0x28 }
  - { offsetInCU: 0xEE1B, offset: 0xEE1B, size: 0x8, addend: 0x0, symName: __ZNSt3__114__split_bufferIP7Vector2NS_9allocatorIS2_EEE17__destruct_at_endB7v160006EPS2_, symObjAddr: 0x4610, symBinAddr: 0x1000074F8, symSize: 0x2C }
  - { offsetInCU: 0xEE4F, offset: 0xEE4F, size: 0x8, addend: 0x0, symName: __ZNSt3__114__split_bufferIP7Vector2NS_9allocatorIS2_EEE17__destruct_at_endB7v160006EPS2_NS_17integral_constantIbLb0EEE, symObjAddr: 0x463C, symBinAddr: 0x100007524, symSize: 0x80 }
  - { offsetInCU: 0xEE8F, offset: 0xEE8F, size: 0x8, addend: 0x0, symName: __ZNSt3__15dequeI7Vector2NS_9allocatorIS1_EEEC2ERKS4_, symObjAddr: 0x46BC, symBinAddr: 0x1000075A4, symSize: 0xEC }
  - { offsetInCU: 0xEECA, offset: 0xEECA, size: 0x8, addend: 0x0, symName: __ZNSt3__116allocator_traitsINS_9allocatorI7Vector2EEE37select_on_container_copy_constructionB7v160006IS3_vvEES3_RKS3_, symObjAddr: 0x47A8, symBinAddr: 0x100007690, symSize: 0x10 }
  - { offsetInCU: 0xEEF9, offset: 0xEEF9, size: 0x8, addend: 0x0, symName: __ZNKSt3__15dequeI7Vector2NS_9allocatorIS1_EEE7__allocB7v160006Ev, symObjAddr: 0x47B8, symBinAddr: 0x1000076A0, symSize: 0x28 }
  - { offsetInCU: 0xEF1F, offset: 0xEF1F, size: 0x8, addend: 0x0, symName: __ZNSt3__19allocatorIP7Vector2EC1B7v160006IS1_EERKNS0_IT_EE, symObjAddr: 0x47E0, symBinAddr: 0x1000076C8, symSize: 0x34 }
  - { offsetInCU: 0xEF5C, offset: 0xEF5C, size: 0x8, addend: 0x0, symName: __ZNSt3__114__split_bufferIP7Vector2NS_9allocatorIS2_EEEC1ERKS4_, symObjAddr: 0x4814, symBinAddr: 0x1000076FC, symSize: 0x34 }
  - { offsetInCU: 0xEF96, offset: 0xEF96, size: 0x8, addend: 0x0, symName: __ZNSt3__117__compressed_pairImNS_9allocatorI7Vector2EEEC1B7v160006IiRNS1_IPS2_EEEEOT_OT0_, symObjAddr: 0x4848, symBinAddr: 0x100007730, symSize: 0x3C }
  - { offsetInCU: 0xEFEE, offset: 0xEFEE, size: 0x8, addend: 0x0, symName: __ZNSt3__15dequeI7Vector2NS_9allocatorIS1_EEE8__appendINS_16__deque_iteratorIS1_PKS1_RS7_PKS8_lLl512EEEEEvT_SD_PNS_9enable_ifIXsr27__is_cpp17_forward_iteratorISD_EE5valueEvE4typeE, symObjAddr: 0x4884, symBinAddr: 0x10000776C, symSize: 0x248 }
  - { offsetInCU: 0xF0DE, offset: 0xF0DE, size: 0x8, addend: 0x0, symName: __ZNKSt3__15dequeI7Vector2NS_9allocatorIS1_EEE5beginB7v160006Ev, symObjAddr: 0x4ACC, symBinAddr: 0x1000079B4, symSize: 0xA8 }
  - { offsetInCU: 0xF113, offset: 0xF113, size: 0x8, addend: 0x0, symName: __ZNKSt3__15dequeI7Vector2NS_9allocatorIS1_EEE3endB7v160006Ev, symObjAddr: 0x4B74, symBinAddr: 0x100007A5C, symSize: 0xBC }
  - { offsetInCU: 0xF157, offset: 0xF157, size: 0x8, addend: 0x0, symName: __ZNKSt3__117__compressed_pairImNS_9allocatorI7Vector2EEE6secondB7v160006Ev, symObjAddr: 0x4C30, symBinAddr: 0x100007B18, symSize: 0x24 }
  - { offsetInCU: 0xF17D, offset: 0xF17D, size: 0x8, addend: 0x0, symName: __ZNKSt3__122__compressed_pair_elemINS_9allocatorI7Vector2EELi1ELb1EE5__getB7v160006Ev, symObjAddr: 0x4C54, symBinAddr: 0x100007B3C, symSize: 0x14 }
  - { offsetInCU: 0xF1A3, offset: 0xF1A3, size: 0x8, addend: 0x0, symName: __ZNSt3__19allocatorIP7Vector2EC2B7v160006IS1_EERKNS0_IT_EE, symObjAddr: 0x4C68, symBinAddr: 0x100007B50, symSize: 0x30 }
  - { offsetInCU: 0xF1E0, offset: 0xF1E0, size: 0x8, addend: 0x0, symName: __ZNSt3__114__split_bufferIP7Vector2NS_9allocatorIS2_EEEC2ERKS4_, symObjAddr: 0x4C98, symBinAddr: 0x100007B80, symSize: 0x4C }
  - { offsetInCU: 0xF21A, offset: 0xF21A, size: 0x8, addend: 0x0, symName: __ZNSt3__117__compressed_pairIPP7Vector2NS_9allocatorIS2_EEEC1B7v160006IDnRKS5_EEOT_OT0_, symObjAddr: 0x4CE4, symBinAddr: 0x100007BCC, symSize: 0x3C }
  - { offsetInCU: 0xF272, offset: 0xF272, size: 0x8, addend: 0x0, symName: __ZNSt3__117__compressed_pairIPP7Vector2NS_9allocatorIS2_EEEC2B7v160006IDnRKS5_EEOT_OT0_, symObjAddr: 0x4D20, symBinAddr: 0x100007C08, symSize: 0x44 }
  - { offsetInCU: 0xF2CA, offset: 0xF2CA, size: 0x8, addend: 0x0, symName: __ZNSt3__122__compressed_pair_elemINS_9allocatorIP7Vector2EELi1ELb1EEC2B7v160006IRKS4_vEEOT_, symObjAddr: 0x4D64, symBinAddr: 0x100007C4C, symSize: 0x18 }
  - { offsetInCU: 0xF30C, offset: 0xF30C, size: 0x8, addend: 0x0, symName: __ZNSt3__117__compressed_pairImNS_9allocatorI7Vector2EEEC2B7v160006IiRNS1_IPS2_EEEEOT_OT0_, symObjAddr: 0x4D7C, symBinAddr: 0x100007C64, symSize: 0x44 }
  - { offsetInCU: 0xF364, offset: 0xF364, size: 0x8, addend: 0x0, symName: __ZNSt3__122__compressed_pair_elemINS_9allocatorI7Vector2EELi1ELb1EEC2B7v160006IRNS1_IPS2_EEvEEOT_, symObjAddr: 0x4DC0, symBinAddr: 0x100007CA8, symSize: 0x34 }
  - { offsetInCU: 0xF3A6, offset: 0xF3A6, size: 0x8, addend: 0x0, symName: __ZNSt3__19allocatorI7Vector2EC2B7v160006IPS1_EERKNS0_IT_EE, symObjAddr: 0x4DF4, symBinAddr: 0x100007CDC, symSize: 0x30 }
  - { offsetInCU: 0xF3E3, offset: 0xF3E3, size: 0x8, addend: 0x0, symName: __ZNKSt3__116__deque_iteratorI7Vector2PKS1_RS2_PKS3_lLl512EEdeB7v160006Ev, symObjAddr: 0x4E70, symBinAddr: 0x100007D58, symSize: 0x18 }
  - { offsetInCU: 0xF409, offset: 0xF409, size: 0x8, addend: 0x0, symName: __ZNSt3__116__deque_iteratorI7Vector2PKS1_RS2_PKS3_lLl512EEppB7v160006Ev, symObjAddr: 0x4E88, symBinAddr: 0x100007D70, symSize: 0x70 }
  - { offsetInCU: 0xF42F, offset: 0xF42F, size: 0x8, addend: 0x0, symName: __ZNKSt3__114__split_bufferIP7Vector2NS_9allocatorIS2_EEE5beginB7v160006Ev, symObjAddr: 0x5038, symBinAddr: 0x100007F20, symSize: 0x18 }
  - { offsetInCU: 0xF455, offset: 0xF455, size: 0x8, addend: 0x0, symName: __ZNSt3__116__deque_iteratorI7Vector2PKS1_RS2_PKS3_lLl512EEC1B7v160006ES6_S3_, symObjAddr: 0x5050, symBinAddr: 0x100007F38, symSize: 0x3C }
  - { offsetInCU: 0xF49D, offset: 0xF49D, size: 0x8, addend: 0x0, symName: __ZNSt3__116__deque_iteratorI7Vector2PKS1_RS2_PKS3_lLl512EEC2B7v160006ES6_S3_, symObjAddr: 0x508C, symBinAddr: 0x100007F74, symSize: 0x2C }
  - { offsetInCU: 0xF4E5, offset: 0xF4E5, size: 0x8, addend: 0x0, symName: __ZN4FoodC2ENSt3__15dequeI7Vector2NS0_9allocatorIS2_EEEE, symObjAddr: 0x50B8, symBinAddr: 0x100007FA0, symSize: 0x10C }
  - { offsetInCU: 0xF532, offset: 0xF532, size: 0x8, addend: 0x0, symName: __ZN4Food17GenerateRandomPosENSt3__15dequeI7Vector2NS0_9allocatorIS2_EEEE, symObjAddr: 0x51C4, symBinAddr: 0x1000080AC, symSize: 0xC4 }
  - { offsetInCU: 0xF575, offset: 0xF575, size: 0x8, addend: 0x0, symName: __ZN4Food18GenerateRandomCellEv, symObjAddr: 0x5288, symBinAddr: 0x100008170, symSize: 0x68 }
  - { offsetInCU: 0xF5B7, offset: 0xF5B7, size: 0x8, addend: 0x0, symName: __ZNSt3__15dequeI7Vector2NS_9allocatorIS1_EEED2B7v160006Ev, symObjAddr: 0x52F0, symBinAddr: 0x1000081D8, symSize: 0x9C }
  - { offsetInCU: 0xF60E, offset: 0xF60E, size: 0x8, addend: 0x0, symName: __ZNSt3__15dequeI7Vector2NS_9allocatorIS1_EEE5clearEv, symObjAddr: 0x538C, symBinAddr: 0x100008274, symSize: 0x164 }
  - { offsetInCU: 0xF669, offset: 0xF669, size: 0x8, addend: 0x0, symName: __ZNSt3__116allocator_traitsINS_9allocatorI7Vector2EEE7destroyB7v160006IS2_vEEvRS3_PT_, symObjAddr: 0x54F0, symBinAddr: 0x1000083D8, symSize: 0x2C }
  - { offsetInCU: 0xF6A6, offset: 0xF6A6, size: 0x8, addend: 0x0, symName: __ZNSt3__19allocatorI7Vector2E7destroyB7v160006EPS1_, symObjAddr: 0x551C, symBinAddr: 0x100008404, symSize: 0x14 }
  - { offsetInCU: 0xF6DA, offset: 0xF6DA, size: 0x8, addend: 0x0, symName: __ZN3DogD2Ev, symObjAddr: 0x5530, symBinAddr: 0x100008418, symSize: 0x2C }
  - { offsetInCU: 0xF706, offset: 0xF706, size: 0x8, addend: 0x0, symName: __ZN3Dog6UpdateEv, symObjAddr: 0x555C, symBinAddr: 0x100008444, symSize: 0x9C }
  - { offsetInCU: 0xF72C, offset: 0xF72C, size: 0x8, addend: 0x0, symName: __ZN4Game11CheckAtFoodEv, symObjAddr: 0x55F8, symBinAddr: 0x1000084E0, symSize: 0xE8 }
  - { offsetInCU: 0xF752, offset: 0xF752, size: 0x8, addend: 0x0, symName: __ZN4Game11CheckAtEdgeEv, symObjAddr: 0x56E0, symBinAddr: 0x1000085C8, symSize: 0xBC }
  - { offsetInCU: 0xF778, offset: 0xF778, size: 0x8, addend: 0x0, symName: __ZNSt3__15dequeI7Vector2NS_9allocatorIS1_EEE10push_frontEOS1_, symObjAddr: 0x579C, symBinAddr: 0x100008684, symSize: 0xB0 }
  - { offsetInCU: 0xF7BD, offset: 0xF7BD, size: 0x8, addend: 0x0, symName: __Z10Vector2Add7Vector2S_, symObjAddr: 0x584C, symBinAddr: 0x100008734, symSize: 0x44 }
  - { offsetInCU: 0xF806, offset: 0xF806, size: 0x8, addend: 0x0, symName: __ZNSt3__15dequeI7Vector2NS_9allocatorIS1_EEEixEm, symObjAddr: 0x5890, symBinAddr: 0x100008778, symSize: 0x5C }
  - { offsetInCU: 0xF84C, offset: 0xF84C, size: 0x8, addend: 0x0, symName: __ZNSt3__15dequeI7Vector2NS_9allocatorIS1_EEE8pop_backEv, symObjAddr: 0x58EC, symBinAddr: 0x1000087D4, symSize: 0xB8 }
  - { offsetInCU: 0xF892, offset: 0xF892, size: 0x8, addend: 0x0, symName: __ZNSt3__15dequeI7Vector2NS_9allocatorIS1_EEE20__add_front_capacityEv, symObjAddr: 0x59A4, symBinAddr: 0x10000888C, symSize: 0x394 }
  - { offsetInCU: 0xF94F, offset: 0xF94F, size: 0x8, addend: 0x0, symName: __ZNSt3__116allocator_traitsINS_9allocatorI7Vector2EEE9constructB7v160006IS2_JS2_EvEEvRS3_PT_DpOT0_, symObjAddr: 0x5D38, symBinAddr: 0x100008C20, symSize: 0x34 }
  - { offsetInCU: 0xF9A6, offset: 0xF9A6, size: 0x8, addend: 0x0, symName: __ZNSt3__116__deque_iteratorI7Vector2PS1_RS1_PS2_lLl512EEmmB7v160006Ev, symObjAddr: 0x5D6C, symBinAddr: 0x100008C54, symSize: 0x68 }
  - { offsetInCU: 0xF9CC, offset: 0xF9CC, size: 0x8, addend: 0x0, symName: __ZNSt3__114__split_bufferIP7Vector2NS_9allocatorIS2_EEE4backB7v160006Ev, symObjAddr: 0x5DD4, symBinAddr: 0x100008CBC, symSize: 0x1C }
  - { offsetInCU: 0xF9F2, offset: 0xF9F2, size: 0x8, addend: 0x0, symName: __ZNSt3__114__split_bufferIP7Vector2NS_9allocatorIS2_EEE8pop_backB7v160006Ev, symObjAddr: 0x5DF0, symBinAddr: 0x100008CD8, symSize: 0x2C }
  - { offsetInCU: 0xFA18, offset: 0xFA18, size: 0x8, addend: 0x0, symName: __ZNSt3__114__split_bufferIP7Vector2NS_9allocatorIS2_EEE10push_frontERKS2_, symObjAddr: 0x5E1C, symBinAddr: 0x100008D04, symSize: 0x25C }
  - { offsetInCU: 0xFA91, offset: 0xFA91, size: 0x8, addend: 0x0, symName: __ZNKSt3__114__split_bufferIP7Vector2NS_9allocatorIS2_EEE13__front_spareB7v160006Ev, symObjAddr: 0x6078, symBinAddr: 0x100008F60, symSize: 0x28 }
  - { offsetInCU: 0xFABC, offset: 0xFABC, size: 0x8, addend: 0x0, symName: __ZNSt3__122__allocator_destructorINS_9allocatorI7Vector2EEEC1B7v160006ERS3_m, symObjAddr: 0x60A0, symBinAddr: 0x100008F88, symSize: 0x3C }
  - { offsetInCU: 0xFB7F, offset: 0xFB7F, size: 0x8, addend: 0x0, symName: __ZNSt3__110unique_ptrIP7Vector2NS_22__allocator_destructorINS_9allocatorIS1_EEEEEC1B7v160006ILb1EvEES2_NS_16__dependent_typeINS_27__unique_ptr_deleter_sfinaeIS6_EEXT_EE20__good_rval_ref_typeE, symObjAddr: 0x60DC, symBinAddr: 0x100008FC4, symSize: 0x3C }
  - { offsetInCU: 0xFBD0, offset: 0xFBD0, size: 0x8, addend: 0x0, symName: __ZNKSt3__110unique_ptrIP7Vector2NS_22__allocator_destructorINS_9allocatorIS1_EEEEE3getB7v160006Ev, symObjAddr: 0x6118, symBinAddr: 0x100009000, symSize: 0x28 }
  - { offsetInCU: 0xFBF6, offset: 0xFBF6, size: 0x8, addend: 0x0, symName: __ZNSt3__110unique_ptrIP7Vector2NS_22__allocator_destructorINS_9allocatorIS1_EEEEE7releaseB7v160006Ev, symObjAddr: 0x6140, symBinAddr: 0x100009028, symSize: 0x44 }
  - { offsetInCU: 0xFC2B, offset: 0xFC2B, size: 0x8, addend: 0x0, symName: __ZNSt3__110unique_ptrIP7Vector2NS_22__allocator_destructorINS_9allocatorIS1_EEEEED1B7v160006Ev, symObjAddr: 0x6184, symBinAddr: 0x10000906C, symSize: 0x2C }
  - { offsetInCU: 0xFC55, offset: 0xFC55, size: 0x8, addend: 0x0, symName: __ZNSt3__122__allocator_destructorINS_9allocatorI7Vector2EEEC2B7v160006ERS3_m, symObjAddr: 0x61B0, symBinAddr: 0x100009098, symSize: 0x2C }
  - { offsetInCU: 0xFC9B, offset: 0xFC9B, size: 0x8, addend: 0x0, symName: __ZNSt3__110unique_ptrIP7Vector2NS_22__allocator_destructorINS_9allocatorIS1_EEEEEC2B7v160006ILb1EvEES2_NS_16__dependent_typeINS_27__unique_ptr_deleter_sfinaeIS6_EEXT_EE20__good_rval_ref_typeE, symObjAddr: 0x61DC, symBinAddr: 0x1000090C4, symSize: 0x48 }
  - { offsetInCU: 0xFCEC, offset: 0xFCEC, size: 0x8, addend: 0x0, symName: __ZNSt3__117__compressed_pairIP7Vector2NS_22__allocator_destructorINS_9allocatorIS1_EEEEEC1B7v160006IRS2_S6_EEOT_OT0_, symObjAddr: 0x6224, symBinAddr: 0x10000910C, symSize: 0x3C }
  - { offsetInCU: 0xFD44, offset: 0xFD44, size: 0x8, addend: 0x0, symName: __ZNSt3__117__compressed_pairIP7Vector2NS_22__allocator_destructorINS_9allocatorIS1_EEEEEC2B7v160006IRS2_S6_EEOT_OT0_, symObjAddr: 0x6260, symBinAddr: 0x100009148, symSize: 0x48 }
  - { offsetInCU: 0xFD9C, offset: 0xFD9C, size: 0x8, addend: 0x0, symName: __ZNSt3__122__compressed_pair_elemIP7Vector2Li0ELb0EEC2B7v160006IRS2_vEEOT_, symObjAddr: 0x62A8, symBinAddr: 0x100009190, symSize: 0x24 }
  - { offsetInCU: 0xFDDE, offset: 0xFDDE, size: 0x8, addend: 0x0, symName: __ZNSt3__122__compressed_pair_elemINS_22__allocator_destructorINS_9allocatorI7Vector2EEEELi1ELb0EEC2B7v160006IS5_vEEOT_, symObjAddr: 0x62CC, symBinAddr: 0x1000091B4, symSize: 0x24 }
  - { offsetInCU: 0xFE20, offset: 0xFE20, size: 0x8, addend: 0x0, symName: __ZNKSt3__117__compressed_pairIP7Vector2NS_22__allocator_destructorINS_9allocatorIS1_EEEEE5firstB7v160006Ev, symObjAddr: 0x62F0, symBinAddr: 0x1000091D8, symSize: 0x24 }
  - { offsetInCU: 0xFE46, offset: 0xFE46, size: 0x8, addend: 0x0, symName: __ZNKSt3__122__compressed_pair_elemIP7Vector2Li0ELb0EE5__getB7v160006Ev, symObjAddr: 0x6314, symBinAddr: 0x1000091FC, symSize: 0x14 }
  - { offsetInCU: 0xFE6C, offset: 0xFE6C, size: 0x8, addend: 0x0, symName: __ZNSt3__117__compressed_pairIP7Vector2NS_22__allocator_destructorINS_9allocatorIS1_EEEEE5firstB7v160006Ev, symObjAddr: 0x6328, symBinAddr: 0x100009210, symSize: 0x24 }
  - { offsetInCU: 0xFE92, offset: 0xFE92, size: 0x8, addend: 0x0, symName: __ZNSt3__122__compressed_pair_elemIP7Vector2Li0ELb0EE5__getB7v160006Ev, symObjAddr: 0x634C, symBinAddr: 0x100009234, symSize: 0x14 }
  - { offsetInCU: 0xFEB8, offset: 0xFEB8, size: 0x8, addend: 0x0, symName: __ZNSt3__110unique_ptrIP7Vector2NS_22__allocator_destructorINS_9allocatorIS1_EEEEED2B7v160006Ev, symObjAddr: 0x6360, symBinAddr: 0x100009248, symSize: 0x30 }
  - { offsetInCU: 0xFEE2, offset: 0xFEE2, size: 0x8, addend: 0x0, symName: __ZNSt3__110unique_ptrIP7Vector2NS_22__allocator_destructorINS_9allocatorIS1_EEEEE5resetB7v160006ES2_, symObjAddr: 0x6390, symBinAddr: 0x100009278, symSize: 0x78 }
  - { offsetInCU: 0xFF26, offset: 0xFF26, size: 0x8, addend: 0x0, symName: __ZNSt3__117__compressed_pairIP7Vector2NS_22__allocator_destructorINS_9allocatorIS1_EEEEE6secondB7v160006Ev, symObjAddr: 0x6408, symBinAddr: 0x1000092F0, symSize: 0x28 }
  - { offsetInCU: 0xFF4C, offset: 0xFF4C, size: 0x8, addend: 0x0, symName: __ZNSt3__122__allocator_destructorINS_9allocatorI7Vector2EEEclB7v160006EPS2_, symObjAddr: 0x6430, symBinAddr: 0x100009318, symSize: 0x34 }
  - { offsetInCU: 0xFF80, offset: 0xFF80, size: 0x8, addend: 0x0, symName: __ZNSt3__122__compressed_pair_elemINS_22__allocator_destructorINS_9allocatorI7Vector2EEEELi1ELb0EE5__getB7v160006Ev, symObjAddr: 0x6464, symBinAddr: 0x10000934C, symSize: 0x14 }
  - { offsetInCU: 0xFFA6, offset: 0xFFA6, size: 0x8, addend: 0x0, symName: __ZNSt3__19allocatorI7Vector2E9constructB7v160006IS1_JS1_EEEvPT_DpOT0_, symObjAddr: 0x6478, symBinAddr: 0x100009360, symSize: 0x28 }
  - { offsetInCU: 0xFFFC, offset: 0xFFFC, size: 0x8, addend: 0x0, symName: __ZNSt3__15dequeI7Vector2NS_9allocatorIS1_EEE25__maybe_remove_back_spareB7v160006Eb, symObjAddr: 0x64A0, symBinAddr: 0x100009388, symSize: 0xCC }
  - { offsetInCU: 0x10031, offset: 0x10031, size: 0x8, addend: 0x0, symName: __ZNKSt3__15dequeI7Vector2NS_9allocatorIS1_EEE19__back_spare_blocksB7v160006Ev, symObjAddr: 0x656C, symBinAddr: 0x100009454, symSize: 0x2C }
  - { offsetInCU: 0x10057, offset: 0x10057, size: 0x8, addend: 0x0, symName: __ZN4Game8GameOverEv, symObjAddr: 0x6598, symBinAddr: 0x100009480, symSize: 0xA0 }
  - { offsetInCU: 0x1007D, offset: 0x1007D, size: 0x8, addend: 0x0, symName: __ZN3Dog5ResetEv, symObjAddr: 0x6638, symBinAddr: 0x100009520, symSize: 0xA8 }
  - { offsetInCU: 0x100A3, offset: 0x100A3, size: 0x8, addend: 0x0, symName: __ZNSt3__15dequeI7Vector2NS_9allocatorIS1_EEEaSB7v160006ESt16initializer_listIS1_E, symObjAddr: 0x66E0, symBinAddr: 0x1000095C8, symSize: 0x44 }
  - { offsetInCU: 0x100D8, offset: 0x100D8, size: 0x8, addend: 0x0, symName: __ZNSt3__15dequeI7Vector2NS_9allocatorIS1_EEE6assignB7v160006ESt16initializer_listIS1_E, symObjAddr: 0x6724, symBinAddr: 0x10000960C, symSize: 0x60 }
  - { offsetInCU: 0x1010D, offset: 0x1010D, size: 0x8, addend: 0x0, symName: __ZNSt3__15dequeI7Vector2NS_9allocatorIS1_EEE6assignIPKS1_EEvT_S8_PNS_9enable_ifIXsr33__is_cpp17_random_access_iteratorIS8_EE5valueEvE4typeE, symObjAddr: 0x6784, symBinAddr: 0x10000966C, symSize: 0x14C }
  - { offsetInCU: 0x10186, offset: 0x10186, size: 0x8, addend: 0x0, symName: __ZNSt3__15dequeI7Vector2NS_9allocatorIS1_EEE14__erase_to_endENS_16__deque_iteratorIS1_PKS1_RS6_PKS7_lLl512EEE, symObjAddr: 0x6930, symBinAddr: 0x100009818, symSize: 0x168 }
  - { offsetInCU: 0x1023E, offset: 0x1023E, size: 0x8, addend: 0x0, symName: __ZNSt3__116__deque_iteratorI7Vector2PKS1_RS2_PKS3_lLl512EEC1B7v160006IPS1_RS1_PS9_EERKNS0_IS1_T_T0_T1_lLl512EEEPNS_9enable_ifIXsr14is_convertibleISC_S3_EE5valueEvE4typeE, symObjAddr: 0x6A98, symBinAddr: 0x100009980, symSize: 0x3C }
  - { offsetInCU: 0x102BC, offset: 0x102BC, size: 0x8, addend: 0x0, symName: __ZNSt3__111__copy_loopINS_17_ClassicAlgPolicyEEclB7v160006IPK7Vector2NS_16__deque_iteratorIS4_PS4_RS4_PS8_lLl512EEELi0EEENS_4pairIT_T0_EESD_SD_SE_, symObjAddr: 0x6CAC, symBinAddr: 0x100009B94, symSize: 0x164 }
  - { offsetInCU: 0x1039A, offset: 0x1039A, size: 0x8, addend: 0x0, symName: __ZNSt3__14pairIPK7Vector2S3_EC1B7v160006IS3_S3_LPv0EEEOT_OT0_, symObjAddr: 0x6F88, symBinAddr: 0x100009E70, symSize: 0x3C }
  - { offsetInCU: 0x103F8, offset: 0x103F8, size: 0x8, addend: 0x0, symName: __ZNSt3__14pairIPK7Vector2S3_EC2B7v160006IS3_S3_LPv0EEEOT_OT0_, symObjAddr: 0x6FC4, symBinAddr: 0x100009EAC, symSize: 0x34 }
  - { offsetInCU: 0x10456, offset: 0x10456, size: 0x8, addend: 0x0, symName: __ZNSt3__118__unwrap_iter_implIPK7Vector2Lb1EE8__unwrapB7v160006ES3_, symObjAddr: 0x6FF8, symBinAddr: 0x100009EE0, symSize: 0x24 }
  - { offsetInCU: 0x10479, offset: 0x10479, size: 0x8, addend: 0x0, symName: __ZNSt3__127__segmented_iterator_traitsINS_16__deque_iteratorI7Vector2PS2_RS2_PS3_lLl512EEEE7__localB7v160006ES6_, symObjAddr: 0x7030, symBinAddr: 0x100009F18, symSize: 0x18 }
  - { offsetInCU: 0x1049D, offset: 0x1049D, size: 0x8, addend: 0x0, symName: __ZNSt3__127__segmented_iterator_traitsINS_16__deque_iteratorI7Vector2PS2_RS2_PS3_lLl512EEEE9__segmentB7v160006ES6_, symObjAddr: 0x7048, symBinAddr: 0x100009F30, symSize: 0x18 }
  - { offsetInCU: 0x104C1, offset: 0x104C1, size: 0x8, addend: 0x0, symName: __ZNSt3__127__segmented_iterator_traitsINS_16__deque_iteratorI7Vector2PS2_RS2_PS3_lLl512EEEE5__endB7v160006ES5_, symObjAddr: 0x7060, symBinAddr: 0x100009F48, symSize: 0x1C }
  - { offsetInCU: 0x104E5, offset: 0x104E5, size: 0x8, addend: 0x0, symName: __ZNSt3__127__segmented_iterator_traitsINS_16__deque_iteratorI7Vector2PS2_RS2_PS3_lLl512EEEE9__composeB7v160006ES5_S3_, symObjAddr: 0x70EC, symBinAddr: 0x100009FD4, symSize: 0x84 }
  - { offsetInCU: 0x10518, offset: 0x10518, size: 0x8, addend: 0x0, symName: __ZNSt3__127__segmented_iterator_traitsINS_16__deque_iteratorI7Vector2PS2_RS2_PS3_lLl512EEEE7__beginB7v160006ES5_, symObjAddr: 0x7170, symBinAddr: 0x10000A058, symSize: 0x18 }
  - { offsetInCU: 0x10550, offset: 0x10550, size: 0x8, addend: 0x0, symName: __ZNKSt3__16__lessIllEclB7v160006ERKlS3_, symObjAddr: 0x71DC, symBinAddr: 0x10000A0C4, symSize: 0x34 }
  - { offsetInCU: 0x105B5, offset: 0x105B5, size: 0x8, addend: 0x0, symName: __ZNKSt3__114__copy_trivialclB7v160006IK7Vector2S2_Li0EEENS_4pairIPT_PT0_EES6_S6_S8_, symObjAddr: 0x7308, symBinAddr: 0x10000A1F0, symSize: 0x48 }
  - { offsetInCU: 0x1061D, offset: 0x1061D, size: 0x8, addend: 0x0, symName: __ZNSt3__14pairIPK7Vector2PS1_EC1B7v160006IRS3_S4_LPv0EEEOT_OT0_, symObjAddr: 0x74A4, symBinAddr: 0x10000A38C, symSize: 0x3C }
  - { offsetInCU: 0x1067B, offset: 0x1067B, size: 0x8, addend: 0x0, symName: __ZNSt3__14pairIPK7Vector2PS1_EC2B7v160006IRS3_S4_LPv0EEEOT_OT0_, symObjAddr: 0x74E0, symBinAddr: 0x10000A3C8, symSize: 0x34 }
  - { offsetInCU: 0x106D9, offset: 0x106D9, size: 0x8, addend: 0x0, symName: __ZNSt3__118__unwrap_iter_implIP7Vector2Lb1EE8__unwrapB7v160006ES2_, symObjAddr: 0x7514, symBinAddr: 0x10000A3FC, symSize: 0x24 }
  - { offsetInCU: 0x106FC, offset: 0x106FC, size: 0x8, addend: 0x0, symName: __ZNSt3__14pairIPK7Vector2PS1_EC1B7v160006IS3_S4_LPv0EEEOT_OT0_, symObjAddr: 0x7538, symBinAddr: 0x10000A420, symSize: 0x3C }
  - { offsetInCU: 0x1075A, offset: 0x1075A, size: 0x8, addend: 0x0, symName: __ZNSt3__14pairIPK7Vector2PS1_EC2B7v160006IS3_S4_LPv0EEEOT_OT0_, symObjAddr: 0x7574, symBinAddr: 0x10000A45C, symSize: 0x34 }
  - { offsetInCU: 0x107B8, offset: 0x107B8, size: 0x8, addend: 0x0, symName: __ZNSt3__118__unwrap_iter_implIP7Vector2Lb1EE8__rewrapB7v160006ES2_S2_, symObjAddr: 0x75A8, symBinAddr: 0x10000A490, symSize: 0x50 }
  - { offsetInCU: 0x107E9, offset: 0x107E9, size: 0x8, addend: 0x0, symName: __ZNSt3__116__deque_iteratorI7Vector2PS1_RS1_PS2_lLl512EEC1B7v160006ES4_S2_, symObjAddr: 0x75F8, symBinAddr: 0x10000A4E0, symSize: 0x3C }
  - { offsetInCU: 0x10831, offset: 0x10831, size: 0x8, addend: 0x0, symName: __ZNSt3__116__deque_iteratorI7Vector2PS1_RS1_PS2_lLl512EEC2B7v160006ES4_S2_, symObjAddr: 0x7634, symBinAddr: 0x10000A51C, symSize: 0x2C }
  - { offsetInCU: 0x10879, offset: 0x10879, size: 0x8, addend: 0x0, symName: __ZNSt3__118__unwrap_iter_implINS_16__deque_iteratorI7Vector2PS2_RS2_PS3_lLl512EEELb0EE8__unwrapB7v160006ES6_, symObjAddr: 0x7660, symBinAddr: 0x10000A548, symSize: 0x24 }
  - { offsetInCU: 0x108A1, offset: 0x108A1, size: 0x8, addend: 0x0, symName: __ZNSt3__14pairIPK7Vector2NS_16__deque_iteratorIS1_PS1_RS1_PS5_lLl512EEEEC1B7v160006IS3_S8_LPv0EEEOT_OT0_, symObjAddr: 0x7684, symBinAddr: 0x10000A56C, symSize: 0x3C }
  - { offsetInCU: 0x108FF, offset: 0x108FF, size: 0x8, addend: 0x0, symName: __ZNSt3__14pairIPK7Vector2NS_16__deque_iteratorIS1_PS1_RS1_PS5_lLl512EEEEC2B7v160006IS3_S8_LPv0EEEOT_OT0_, symObjAddr: 0x76C0, symBinAddr: 0x10000A5A8, symSize: 0x34 }
  - { offsetInCU: 0x1095D, offset: 0x1095D, size: 0x8, addend: 0x0, symName: __ZNSt3__118__unwrap_iter_implIPK7Vector2Lb1EE8__rewrapB7v160006ES3_S3_, symObjAddr: 0x7730, symBinAddr: 0x10000A618, symSize: 0x50 }
  - { offsetInCU: 0x1098E, offset: 0x1098E, size: 0x8, addend: 0x0, symName: __ZNSt3__118__unwrap_iter_implINS_16__deque_iteratorI7Vector2PS2_RS2_PS3_lLl512EEELb0EE8__rewrapB7v160006ES6_S6_, symObjAddr: 0x7780, symBinAddr: 0x10000A668, symSize: 0x2C }
  - { offsetInCU: 0x109BB, offset: 0x109BB, size: 0x8, addend: 0x0, symName: __ZNSt3__116__deque_iteratorI7Vector2PKS1_RS2_PKS3_lLl512EEC2B7v160006IPS1_RS1_PS9_EERKNS0_IS1_T_T0_T1_lLl512EEEPNS_9enable_ifIXsr14is_convertibleISC_S3_EE5valueEvE4typeE, symObjAddr: 0x77AC, symBinAddr: 0x10000A694, symSize: 0x34 }
  - { offsetInCU: 0x10A1B, offset: 0x10A1B, size: 0x8, addend: 0x0, symName: __ZN4Food4DrawEv, symObjAddr: 0x77E0, symBinAddr: 0x10000A6C8, symSize: 0x74 }
  - { offsetInCU: 0x10A41, offset: 0x10A41, size: 0x8, addend: 0x0, symName: __ZN3Dog4DrawEv, symObjAddr: 0x7854, symBinAddr: 0x10000A73C, symSize: 0xF4 }
  - { offsetInCU: 0x10ABD, offset: 0x10ABD, size: 0x8, addend: 0x0, symName: __ZN4GameD2Ev, symObjAddr: 0x7948, symBinAddr: 0x10000A830, symSize: 0x38 }
  - { offsetInCU: 0x10AE9, offset: 0x10AE9, size: 0x8, addend: 0x0, symName: __ZN4FoodD1Ev, symObjAddr: 0x7980, symBinAddr: 0x10000A868, symSize: 0x2C }
  - { offsetInCU: 0x10B13, offset: 0x10B13, size: 0x8, addend: 0x0, symName: __ZN4FoodD2Ev, symObjAddr: 0x79AC, symBinAddr: 0x10000A894, symSize: 0x48 }
  - { offsetInCU: 0x10B3D, offset: 0x10B3D, size: 0x8, addend: 0x0, symName: __ZNSt3__111char_traitsIcE6lengthEPKc, symObjAddr: 0x7BE0, symBinAddr: 0x10000AAC8, symSize: 0x34 }
  - { offsetInCU: 0x10B7E, offset: 0x10B7E, size: 0x8, addend: 0x0, symName: __ZNKSt3__113basic_ostreamIcNS_11char_traitsIcEEE6sentrycvbB7v160006Ev, symObjAddr: 0x7C14, symBinAddr: 0x10000AAFC, symSize: 0x1C }
  - { offsetInCU: 0x10BA4, offset: 0x10BA4, size: 0x8, addend: 0x0, symName: __ZNSt3__119ostreambuf_iteratorIcNS_11char_traitsIcEEEC1B7v160006ERNS_13basic_ostreamIcS2_EE, symObjAddr: 0x7E70, symBinAddr: 0x10000AD58, symSize: 0x34 }
  - { offsetInCU: 0x10BDC, offset: 0x10BDC, size: 0x8, addend: 0x0, symName: __ZNKSt3__18ios_base5flagsB7v160006Ev, symObjAddr: 0x7EA4, symBinAddr: 0x10000AD8C, symSize: 0x18 }
  - { offsetInCU: 0x10C04, offset: 0x10C04, size: 0x8, addend: 0x0, symName: __ZNKSt3__19basic_iosIcNS_11char_traitsIcEEE4fillB7v160006Ev, symObjAddr: 0x7EBC, symBinAddr: 0x10000ADA4, symSize: 0x64 }
  - { offsetInCU: 0x10C2C, offset: 0x10C2C, size: 0x8, addend: 0x0, symName: __ZNKSt3__119ostreambuf_iteratorIcNS_11char_traitsIcEEE6failedB7v160006Ev, symObjAddr: 0x7F20, symBinAddr: 0x10000AE08, symSize: 0x24 }
  - { offsetInCU: 0x10C52, offset: 0x10C52, size: 0x8, addend: 0x0, symName: __ZNSt3__19basic_iosIcNS_11char_traitsIcEEE8setstateB7v160006Ej, symObjAddr: 0x7F44, symBinAddr: 0x10000AE2C, symSize: 0x2C }
  - { offsetInCU: 0x10C87, offset: 0x10C87, size: 0x8, addend: 0x0, symName: __ZNKSt3__18ios_base5widthB7v160006Ev, symObjAddr: 0x7F70, symBinAddr: 0x10000AE58, symSize: 0x18 }
  - { offsetInCU: 0x10CAF, offset: 0x10CAF, size: 0x8, addend: 0x0, symName: __ZNSt3__115basic_streambufIcNS_11char_traitsIcEEE5sputnB7v160006EPKcl, symObjAddr: 0x7F88, symBinAddr: 0x10000AE70, symSize: 0x3C }
  - { offsetInCU: 0x10CF1, offset: 0x10CF1, size: 0x8, addend: 0x0, symName: __ZNSt3__112basic_stringIcNS_11char_traitsIcEENS_9allocatorIcEEEC1B7v160006Emc, symObjAddr: 0x7FC4, symBinAddr: 0x10000AEAC, symSize: 0x3C }
  - { offsetInCU: 0x10D39, offset: 0x10D39, size: 0x8, addend: 0x0, symName: __ZNKSt3__112basic_stringIcNS_11char_traitsIcEENS_9allocatorIcEEE4dataB7v160006Ev, symObjAddr: 0x8000, symBinAddr: 0x10000AEE8, symSize: 0x28 }
  - { offsetInCU: 0x10D5F, offset: 0x10D5F, size: 0x8, addend: 0x0, symName: __ZNSt3__18ios_base5widthB7v160006El, symObjAddr: 0x8028, symBinAddr: 0x10000AF10, symSize: 0x2C }
  - { offsetInCU: 0x10DA5, offset: 0x10DA5, size: 0x8, addend: 0x0, symName: __ZNSt3__112basic_stringIcNS_11char_traitsIcEENS_9allocatorIcEEEC2B7v160006Emc, symObjAddr: 0x8054, symBinAddr: 0x10000AF3C, symSize: 0x54 }
  - { offsetInCU: 0x10DED, offset: 0x10DED, size: 0x8, addend: 0x0, symName: __ZNSt3__117__compressed_pairINS_12basic_stringIcNS_11char_traitsIcEENS_9allocatorIcEEE5__repES5_EC1B7v160006INS_18__default_init_tagESA_EEOT_OT0_, symObjAddr: 0x80A8, symBinAddr: 0x10000AF90, symSize: 0x3C }
  - { offsetInCU: 0x10E45, offset: 0x10E45, size: 0x8, addend: 0x0, symName: __ZNSt3__117__compressed_pairINS_12basic_stringIcNS_11char_traitsIcEENS_9allocatorIcEEE5__repES5_EC2B7v160006INS_18__default_init_tagESA_EEOT_OT0_, symObjAddr: 0x80F4, symBinAddr: 0x10000AFDC, symSize: 0x3C }
  - { offsetInCU: 0x10E9D, offset: 0x10E9D, size: 0x8, addend: 0x0, symName: __ZNSt3__122__compressed_pair_elemINS_12basic_stringIcNS_11char_traitsIcEENS_9allocatorIcEEE5__repELi0ELb0EEC2B7v160006ENS_18__default_init_tagE, symObjAddr: 0x8130, symBinAddr: 0x10000B018, symSize: 0x14 }
  - { offsetInCU: 0x10ED1, offset: 0x10ED1, size: 0x8, addend: 0x0, symName: __ZNSt3__122__compressed_pair_elemINS_9allocatorIcEELi1ELb1EEC2B7v160006ENS_18__default_init_tagE, symObjAddr: 0x8144, symBinAddr: 0x10000B02C, symSize: 0x2C }
  - { offsetInCU: 0x10F05, offset: 0x10F05, size: 0x8, addend: 0x0, symName: __ZNSt3__19allocatorIcEC2B7v160006Ev, symObjAddr: 0x8170, symBinAddr: 0x10000B058, symSize: 0x2C }
  - { offsetInCU: 0x10F2F, offset: 0x10F2F, size: 0x8, addend: 0x0, symName: __ZNSt3__116__non_trivial_ifILb1ENS_9allocatorIcEEEC2B7v160006Ev, symObjAddr: 0x819C, symBinAddr: 0x10000B084, symSize: 0x14 }
  - { offsetInCU: 0x10F59, offset: 0x10F59, size: 0x8, addend: 0x0, symName: __ZNKSt3__112basic_stringIcNS_11char_traitsIcEENS_9allocatorIcEEE13__get_pointerB7v160006Ev, symObjAddr: 0x81C4, symBinAddr: 0x10000B0AC, symSize: 0x54 }
  - { offsetInCU: 0x10F7F, offset: 0x10F7F, size: 0x8, addend: 0x0, symName: __ZNKSt3__112basic_stringIcNS_11char_traitsIcEENS_9allocatorIcEEE9__is_longB7v160006Ev, symObjAddr: 0x8218, symBinAddr: 0x10000B100, symSize: 0x38 }
  - { offsetInCU: 0x10FA5, offset: 0x10FA5, size: 0x8, addend: 0x0, symName: __ZNKSt3__112basic_stringIcNS_11char_traitsIcEENS_9allocatorIcEEE18__get_long_pointerB7v160006Ev, symObjAddr: 0x8250, symBinAddr: 0x10000B138, symSize: 0x28 }
  - { offsetInCU: 0x10FCB, offset: 0x10FCB, size: 0x8, addend: 0x0, symName: __ZNKSt3__112basic_stringIcNS_11char_traitsIcEENS_9allocatorIcEEE19__get_short_pointerB7v160006Ev, symObjAddr: 0x8278, symBinAddr: 0x10000B160, symSize: 0x28 }
  - { offsetInCU: 0x10FF1, offset: 0x10FF1, size: 0x8, addend: 0x0, symName: __ZNKSt3__117__compressed_pairINS_12basic_stringIcNS_11char_traitsIcEENS_9allocatorIcEEE5__repES5_E5firstB7v160006Ev, symObjAddr: 0x82A0, symBinAddr: 0x10000B188, symSize: 0x24 }
  - { offsetInCU: 0x11017, offset: 0x11017, size: 0x8, addend: 0x0, symName: __ZNKSt3__122__compressed_pair_elemINS_12basic_stringIcNS_11char_traitsIcEENS_9allocatorIcEEE5__repELi0ELb0EE5__getB7v160006Ev, symObjAddr: 0x82C4, symBinAddr: 0x10000B1AC, symSize: 0x14 }
  - { offsetInCU: 0x1103D, offset: 0x1103D, size: 0x8, addend: 0x0, symName: __ZNSt3__114pointer_traitsIPKcE10pointer_toB7v160006ERS1_, symObjAddr: 0x82D8, symBinAddr: 0x10000B1C0, symSize: 0x14 }
  - { offsetInCU: 0x11060, offset: 0x11060, size: 0x8, addend: 0x0, symName: __ZNSt3__119ostreambuf_iteratorIcNS_11char_traitsIcEEEC2B7v160006ERNS_13basic_ostreamIcS2_EE, symObjAddr: 0x82EC, symBinAddr: 0x10000B1D4, symSize: 0x54 }
  - { offsetInCU: 0x11098, offset: 0x11098, size: 0x8, addend: 0x0, symName: __ZNKSt3__19basic_iosIcNS_11char_traitsIcEEE5rdbufB7v160006Ev, symObjAddr: 0x8340, symBinAddr: 0x10000B228, symSize: 0x24 }
  - { offsetInCU: 0x110C0, offset: 0x110C0, size: 0x8, addend: 0x0, symName: __ZNKSt3__18ios_base5rdbufB7v160006Ev, symObjAddr: 0x8364, symBinAddr: 0x10000B24C, symSize: 0x18 }
  - { offsetInCU: 0x110E6, offset: 0x110E6, size: 0x8, addend: 0x0, symName: __ZNSt3__111char_traitsIcE11eq_int_typeEii, symObjAddr: 0x837C, symBinAddr: 0x10000B264, symSize: 0x28 }
  - { offsetInCU: 0x11117, offset: 0x11117, size: 0x8, addend: 0x0, symName: __ZNSt3__111char_traitsIcE3eofEv, symObjAddr: 0x83A4, symBinAddr: 0x10000B28C, symSize: 0x8 }
  - { offsetInCU: 0x1112B, offset: 0x1112B, size: 0x8, addend: 0x0, symName: __ZNKSt3__19basic_iosIcNS_11char_traitsIcEEE5widenB7v160006Ec, symObjAddr: 0x83AC, symBinAddr: 0x10000B294, symSize: 0x84 }
  - { offsetInCU: 0x11199, offset: 0x11199, size: 0x8, addend: 0x0, symName: __ZNKSt3__15ctypeIcE5widenB7v160006Ec, symObjAddr: 0x845C, symBinAddr: 0x10000B344, symSize: 0x38 }
  - { offsetInCU: 0x111CE, offset: 0x111CE, size: 0x8, addend: 0x0, symName: __ZNSt3__18ios_base8setstateB7v160006Ej, symObjAddr: 0x8494, symBinAddr: 0x10000B37C, symSize: 0x34 }
...
